(lp1
(lp2
S'John'
p3
aS'walks'
p4
aS'.'
aa(lp5
g3
aS'lives'
p6
aS'.'
aa(lp7
g3
aS'hits'
p8
ag3
aS'.'
aa(lp9
g3
ag8
aS'Mary'
p10
aS'.'
aa(lp11
g3
ag8
aS'boy'
p12
aS'.'
aa(lp13
g3
ag8
aS'girl'
p14
aS'.'
aa(lp15
g3
ag8
aS'cat'
p16
aS'.'
aa(lp17
g3
ag8
aS'dog'
p18
aS'.'
aa(lp19
g3
ag8
ag12
aS'who'
p20
ag4
aS'.'
aa(lp21
g3
ag8
ag12
ag20
ag6
aS'.'
aa(lp22
g3
ag8
ag12
ag20
aS'sees'
p23
aS'.'
aa(lp24
g3
ag8
ag12
ag20
aS'hears'
p25
aS'.'
aa(lp26
g3
ag8
ag14
ag20
ag4
aS'.'
aa(lp27
g3
ag8
ag14
ag20
ag6
aS'.'
aa(lp28
g3
ag8
ag14
ag20
ag23
aS'.'
aa(lp29
g3
ag8
ag14
ag20
ag25
aS'.'
aa(lp30
g3
ag8
ag16
ag20
ag4
aS'.'
aa(lp31
g3
ag8
ag16
ag20
ag6
aS'.'
aa(lp32
g3
ag8
ag16
ag20
ag23
aS'.'
aa(lp33
g3
ag8
ag16
ag20
ag25
aS'.'
aa(lp34
g3
ag8
ag18
ag20
ag4
aS'.'
aa(lp35
g3
ag8
ag18
ag20
ag6
aS'.'
aa(lp36
g3
ag8
ag18
ag20
ag23
aS'.'
aa(lp37
g3
ag8
ag18
ag20
ag25
aS'.'
aa(lp38
g3
ag8
aS'boys'
p39
aS'.'
aa(lp40
g3
ag8
aS'girls'
p41
aS'.'
aa(lp42
g3
ag8
aS'cats'
p43
aS'.'
aa(lp44
g3
ag8
aS'dogs'
p45
aS'.'
aa(lp46
g3
ag8
ag39
ag20
aS'walk'
p47
aS'.'
aa(lp48
g3
ag8
ag39
ag20
aS'live'
p49
aS'.'
aa(lp50
g3
ag8
ag39
ag20
aS'see'
p51
aS'.'
aa(lp52
g3
ag8
ag39
ag20
aS'hear'
p53
aS'.'
aa(lp54
g3
ag8
ag41
ag20
ag47
aS'.'
aa(lp55
g3
ag8
ag41
ag20
ag49
aS'.'
aa(lp56
g3
ag8
ag41
ag20
ag51
aS'.'
aa(lp57
g3
ag8
ag41
ag20
ag53
aS'.'
aa(lp58
g3
ag8
ag43
ag20
ag47
aS'.'
aa(lp59
g3
ag8
ag43
ag20
ag49
aS'.'
aa(lp60
g3
ag8
ag43
ag20
ag51
aS'.'
aa(lp61
g3
ag8
ag43
ag20
ag53
aS'.'
aa(lp62
g3
ag8
ag45
ag20
ag47
aS'.'
aa(lp63
g3
ag8
ag45
ag20
ag49
aS'.'
aa(lp64
g3
ag8
ag45
ag20
ag51
aS'.'
aa(lp65
g3
ag8
ag45
ag20
ag53
aS'.'
aa(lp66
g3
aS'feeds'
p67
ag3
aS'.'
aa(lp68
g3
ag67
ag10
aS'.'
aa(lp69
g3
ag67
ag12
aS'.'
aa(lp70
g3
ag67
ag14
aS'.'
aa(lp71
g3
ag67
ag16
aS'.'
aa(lp72
g3
ag67
ag18
aS'.'
aa(lp73
g3
ag67
ag12
ag20
ag4
aS'.'
aa(lp74
g3
ag67
ag12
ag20
ag6
aS'.'
aa(lp75
g3
ag67
ag12
ag20
ag23
aS'.'
aa(lp76
g3
ag67
ag12
ag20
ag25
aS'.'
aa(lp77
g3
ag67
ag14
ag20
ag4
aS'.'
aa(lp78
g3
ag67
ag14
ag20
ag6
aS'.'
aa(lp79
g3
ag67
ag14
ag20
ag23
aS'.'
aa(lp80
g3
ag67
ag14
ag20
ag25
aS'.'
aa(lp81
g3
ag67
ag16
ag20
ag4
aS'.'
aa(lp82
g3
ag67
ag16
ag20
ag6
aS'.'
aa(lp83
g3
ag67
ag16
ag20
ag23
aS'.'
aa(lp84
g3
ag67
ag16
ag20
ag25
aS'.'
aa(lp85
g3
ag67
ag18
ag20
ag4
aS'.'
aa(lp86
g3
ag67
ag18
ag20
ag6
aS'.'
aa(lp87
g3
ag67
ag18
ag20
ag23
aS'.'
aa(lp88
g3
ag67
ag18
ag20
ag25
aS'.'
aa(lp89
g3
ag67
ag39
aS'.'
aa(lp90
g3
ag67
ag41
aS'.'
aa(lp91
g3
ag67
ag43
aS'.'
aa(lp92
g3
ag67
ag45
aS'.'
aa(lp93
g3
ag67
ag39
ag20
ag47
aS'.'
aa(lp94
g3
ag67
ag39
ag20
ag49
aS'.'
aa(lp95
g3
ag67
ag39
ag20
ag51
aS'.'
aa(lp96
g3
ag67
ag39
ag20
ag53
aS'.'
aa(lp97
g3
ag67
ag41
ag20
ag47
aS'.'
aa(lp98
g3
ag67
ag41
ag20
ag49
aS'.'
aa(lp99
g3
ag67
ag41
ag20
ag51
aS'.'
aa(lp100
g3
ag67
ag41
ag20
ag53
aS'.'
aa(lp101
g3
ag67
ag43
ag20
ag47
aS'.'
aa(lp102
g3
ag67
ag43
ag20
ag49
aS'.'
aa(lp103
g3
ag67
ag43
ag20
ag51
aS'.'
aa(lp104
g3
ag67
ag43
ag20
ag53
aS'.'
aa(lp105
g3
ag67
ag45
ag20
ag47
aS'.'
aa(lp106
g3
ag67
ag45
ag20
ag49
aS'.'
aa(lp107
g3
ag67
ag45
ag20
ag51
aS'.'
aa(lp108
g3
ag67
ag45
ag20
ag53
aS'.'
aa(lp109
g3
ag23
aS'.'
aa(lp110
g3
ag25
aS'.'
aa(lp111
g3
ag23
ag3
aS'.'
aa(lp112
g3
ag23
ag10
aS'.'
aa(lp113
g3
ag23
ag12
aS'.'
aa(lp114
g3
ag23
ag14
aS'.'
aa(lp115
g3
ag23
ag16
aS'.'
aa(lp116
g3
ag23
ag18
aS'.'
aa(lp117
g3
ag23
ag12
ag20
ag4
aS'.'
aa(lp118
g3
ag23
ag12
ag20
ag6
aS'.'
aa(lp119
g3
ag23
ag12
ag20
ag23
aS'.'
aa(lp120
g3
ag23
ag12
ag20
ag25
aS'.'
aa(lp121
g3
ag23
ag14
ag20
ag4
aS'.'
aa(lp122
g3
ag23
ag14
ag20
ag6
aS'.'
aa(lp123
g3
ag23
ag14
ag20
ag23
aS'.'
aa(lp124
g3
ag23
ag14
ag20
ag25
aS'.'
aa(lp125
g3
ag23
ag16
ag20
ag4
aS'.'
aa(lp126
g3
ag23
ag16
ag20
ag6
aS'.'
aa(lp127
g3
ag23
ag16
ag20
ag23
aS'.'
aa(lp128
g3
ag23
ag16
ag20
ag25
aS'.'
aa(lp129
g3
ag23
ag18
ag20
ag4
aS'.'
aa(lp130
g3
ag23
ag18
ag20
ag6
aS'.'
aa(lp131
g3
ag23
ag18
ag20
ag23
aS'.'
aa(lp132
g3
ag23
ag18
ag20
ag25
aS'.'
aa(lp133
g3
ag23
ag39
aS'.'
aa(lp134
g3
ag23
ag41
aS'.'
aa(lp135
g3
ag23
ag43
aS'.'
aa(lp136
g3
ag23
ag45
aS'.'
aa(lp137
g3
ag23
ag39
ag20
ag47
aS'.'
aa(lp138
g3
ag23
ag39
ag20
ag49
aS'.'
aa(lp139
g3
ag23
ag39
ag20
ag51
aS'.'
aa(lp140
g3
ag23
ag39
ag20
ag53
aS'.'
aa(lp141
g3
ag23
ag41
ag20
ag47
aS'.'
aa(lp142
g3
ag23
ag41
ag20
ag49
aS'.'
aa(lp143
g3
ag23
ag41
ag20
ag51
aS'.'
aa(lp144
g3
ag23
ag41
ag20
ag53
aS'.'
aa(lp145
g3
ag23
ag43
ag20
ag47
aS'.'
aa(lp146
g3
ag23
ag43
ag20
ag49
aS'.'
aa(lp147
g3
ag23
ag43
ag20
ag51
aS'.'
aa(lp148
g3
ag23
ag43
ag20
ag53
aS'.'
aa(lp149
g3
ag23
ag45
ag20
ag47
aS'.'
aa(lp150
g3
ag23
ag45
ag20
ag49
aS'.'
aa(lp151
g3
ag23
ag45
ag20
ag51
aS'.'
aa(lp152
g3
ag23
ag45
ag20
ag53
aS'.'
aa(lp153
g3
ag25
ag3
aS'.'
aa(lp154
g3
ag25
ag10
aS'.'
aa(lp155
g3
ag25
ag12
aS'.'
aa(lp156
g3
ag25
ag14
aS'.'
aa(lp157
g3
ag25
ag16
aS'.'
aa(lp158
g3
ag25
ag18
aS'.'
aa(lp159
g3
ag25
ag12
ag20
ag4
aS'.'
aa(lp160
g3
ag25
ag12
ag20
ag6
aS'.'
aa(lp161
g3
ag25
ag12
ag20
ag23
aS'.'
aa(lp162
g3
ag25
ag12
ag20
ag25
aS'.'
aa(lp163
g3
ag25
ag14
ag20
ag4
aS'.'
aa(lp164
g3
ag25
ag14
ag20
ag6
aS'.'
aa(lp165
g3
ag25
ag14
ag20
ag23
aS'.'
aa(lp166
g3
ag25
ag14
ag20
ag25
aS'.'
aa(lp167
g3
ag25
ag16
ag20
ag4
aS'.'
aa(lp168
g3
ag25
ag16
ag20
ag6
aS'.'
aa(lp169
g3
ag25
ag16
ag20
ag23
aS'.'
aa(lp170
g3
ag25
ag16
ag20
ag25
aS'.'
aa(lp171
g3
ag25
ag18
ag20
ag4
aS'.'
aa(lp172
g3
ag25
ag18
ag20
ag6
aS'.'
aa(lp173
g3
ag25
ag18
ag20
ag23
aS'.'
aa(lp174
g3
ag25
ag18
ag20
ag25
aS'.'
aa(lp175
g3
ag25
ag39
aS'.'
aa(lp176
g3
ag25
ag41
aS'.'
aa(lp177
g3
ag25
ag43
aS'.'
aa(lp178
g3
ag25
ag45
aS'.'
aa(lp179
g3
ag25
ag39
ag20
ag47
aS'.'
aa(lp180
g3
ag25
ag39
ag20
ag49
aS'.'
aa(lp181
g3
ag25
ag39
ag20
ag51
aS'.'
aa(lp182
g3
ag25
ag39
ag20
ag53
aS'.'
aa(lp183
g3
ag25
ag41
ag20
ag47
aS'.'
aa(lp184
g3
ag25
ag41
ag20
ag49
aS'.'
aa(lp185
g3
ag25
ag41
ag20
ag51
aS'.'
aa(lp186
g3
ag25
ag41
ag20
ag53
aS'.'
aa(lp187
g3
ag25
ag43
ag20
ag47
aS'.'
aa(lp188
g3
ag25
ag43
ag20
ag49
aS'.'
aa(lp189
g3
ag25
ag43
ag20
ag51
aS'.'
aa(lp190
g3
ag25
ag43
ag20
ag53
aS'.'
aa(lp191
g3
ag25
ag45
ag20
ag47
aS'.'
aa(lp192
g3
ag25
ag45
ag20
ag49
aS'.'
aa(lp193
g3
ag25
ag45
ag20
ag51
aS'.'
aa(lp194
g3
ag25
ag45
ag20
ag53
aS'.'
aa(lp195
g10
ag4
aS'.'
aa(lp196
g10
ag6
aS'.'
aa(lp197
g10
ag8
ag3
aS'.'
aa(lp198
g10
ag8
ag10
aS'.'
aa(lp199
g10
ag8
ag12
aS'.'
aa(lp200
g10
ag8
ag14
aS'.'
aa(lp201
g10
ag8
ag16
aS'.'
aa(lp202
g10
ag8
ag18
aS'.'
aa(lp203
g10
ag8
ag12
ag20
ag4
aS'.'
aa(lp204
g10
ag8
ag12
ag20
ag6
aS'.'
aa(lp205
g10
ag8
ag12
ag20
ag23
aS'.'
aa(lp206
g10
ag8
ag12
ag20
ag25
aS'.'
aa(lp207
g10
ag8
ag14
ag20
ag4
aS'.'
aa(lp208
g10
ag8
ag14
ag20
ag6
aS'.'
aa(lp209
g10
ag8
ag14
ag20
ag23
aS'.'
aa(lp210
g10
ag8
ag14
ag20
ag25
aS'.'
aa(lp211
g10
ag8
ag16
ag20
ag4
aS'.'
aa(lp212
g10
ag8
ag16
ag20
ag6
aS'.'
aa(lp213
g10
ag8
ag16
ag20
ag23
aS'.'
aa(lp214
g10
ag8
ag16
ag20
ag25
aS'.'
aa(lp215
g10
ag8
ag18
ag20
ag4
aS'.'
aa(lp216
g10
ag8
ag18
ag20
ag6
aS'.'
aa(lp217
g10
ag8
ag18
ag20
ag23
aS'.'
aa(lp218
g10
ag8
ag18
ag20
ag25
aS'.'
aa(lp219
g10
ag8
ag39
aS'.'
aa(lp220
g10
ag8
ag41
aS'.'
aa(lp221
g10
ag8
ag43
aS'.'
aa(lp222
g10
ag8
ag45
aS'.'
aa(lp223
g10
ag8
ag39
ag20
ag47
aS'.'
aa(lp224
g10
ag8
ag39
ag20
ag49
aS'.'
aa(lp225
g10
ag8
ag39
ag20
ag51
aS'.'
aa(lp226
g10
ag8
ag39
ag20
ag53
aS'.'
aa(lp227
g10
ag8
ag41
ag20
ag47
aS'.'
aa(lp228
g10
ag8
ag41
ag20
ag49
aS'.'
aa(lp229
g10
ag8
ag41
ag20
ag51
aS'.'
aa(lp230
g10
ag8
ag41
ag20
ag53
aS'.'
aa(lp231
g10
ag8
ag43
ag20
ag47
aS'.'
aa(lp232
g10
ag8
ag43
ag20
ag49
aS'.'
aa(lp233
g10
ag8
ag43
ag20
ag51
aS'.'
aa(lp234
g10
ag8
ag43
ag20
ag53
aS'.'
aa(lp235
g10
ag8
ag45
ag20
ag47
aS'.'
aa(lp236
g10
ag8
ag45
ag20
ag49
aS'.'
aa(lp237
g10
ag8
ag45
ag20
ag51
aS'.'
aa(lp238
g10
ag8
ag45
ag20
ag53
aS'.'
aa(lp239
g10
ag67
ag3
aS'.'
aa(lp240
g10
ag67
ag10
aS'.'
aa(lp241
g10
ag67
ag12
aS'.'
aa(lp242
g10
ag67
ag14
aS'.'
aa(lp243
g10
ag67
ag16
aS'.'
aa(lp244
g10
ag67
ag18
aS'.'
aa(lp245
g10
ag67
ag12
ag20
ag4
aS'.'
aa(lp246
g10
ag67
ag12
ag20
ag6
aS'.'
aa(lp247
g10
ag67
ag12
ag20
ag23
aS'.'
aa(lp248
g10
ag67
ag12
ag20
ag25
aS'.'
aa(lp249
g10
ag67
ag14
ag20
ag4
aS'.'
aa(lp250
g10
ag67
ag14
ag20
ag6
aS'.'
aa(lp251
g10
ag67
ag14
ag20
ag23
aS'.'
aa(lp252
g10
ag67
ag14
ag20
ag25
aS'.'
aa(lp253
g10
ag67
ag16
ag20
ag4
aS'.'
aa(lp254
g10
ag67
ag16
ag20
ag6
aS'.'
aa(lp255
g10
ag67
ag16
ag20
ag23
aS'.'
aa(lp256
g10
ag67
ag16
ag20
ag25
aS'.'
aa(lp257
g10
ag67
ag18
ag20
ag4
aS'.'
aa(lp258
g10
ag67
ag18
ag20
ag6
aS'.'
aa(lp259
g10
ag67
ag18
ag20
ag23
aS'.'
aa(lp260
g10
ag67
ag18
ag20
ag25
aS'.'
aa(lp261
g10
ag67
ag39
aS'.'
aa(lp262
g10
ag67
ag41
aS'.'
aa(lp263
g10
ag67
ag43
aS'.'
aa(lp264
g10
ag67
ag45
aS'.'
aa(lp265
g10
ag67
ag39
ag20
ag47
aS'.'
aa(lp266
g10
ag67
ag39
ag20
ag49
aS'.'
aa(lp267
g10
ag67
ag39
ag20
ag51
aS'.'
aa(lp268
g10
ag67
ag39
ag20
ag53
aS'.'
aa(lp269
g10
ag67
ag41
ag20
ag47
aS'.'
aa(lp270
g10
ag67
ag41
ag20
ag49
aS'.'
aa(lp271
g10
ag67
ag41
ag20
ag51
aS'.'
aa(lp272
g10
ag67
ag41
ag20
ag53
aS'.'
aa(lp273
g10
ag67
ag43
ag20
ag47
aS'.'
aa(lp274
g10
ag67
ag43
ag20
ag49
aS'.'
aa(lp275
g10
ag67
ag43
ag20
ag51
aS'.'
aa(lp276
g10
ag67
ag43
ag20
ag53
aS'.'
aa(lp277
g10
ag67
ag45
ag20
ag47
aS'.'
aa(lp278
g10
ag67
ag45
ag20
ag49
aS'.'
aa(lp279
g10
ag67
ag45
ag20
ag51
aS'.'
aa(lp280
g10
ag67
ag45
ag20
ag53
aS'.'
aa(lp281
g10
ag23
aS'.'
aa(lp282
g10
ag25
aS'.'
aa(lp283
g10
ag23
ag3
aS'.'
aa(lp284
g10
ag23
ag10
aS'.'
aa(lp285
g10
ag23
ag12
aS'.'
aa(lp286
g10
ag23
ag14
aS'.'
aa(lp287
g10
ag23
ag16
aS'.'
aa(lp288
g10
ag23
ag18
aS'.'
aa(lp289
g10
ag23
ag12
ag20
ag4
aS'.'
aa(lp290
g10
ag23
ag12
ag20
ag6
aS'.'
aa(lp291
g10
ag23
ag12
ag20
ag23
aS'.'
aa(lp292
g10
ag23
ag12
ag20
ag25
aS'.'
aa(lp293
g10
ag23
ag14
ag20
ag4
aS'.'
aa(lp294
g10
ag23
ag14
ag20
ag6
aS'.'
aa(lp295
g10
ag23
ag14
ag20
ag23
aS'.'
aa(lp296
g10
ag23
ag14
ag20
ag25
aS'.'
aa(lp297
g10
ag23
ag16
ag20
ag4
aS'.'
aa(lp298
g10
ag23
ag16
ag20
ag6
aS'.'
aa(lp299
g10
ag23
ag16
ag20
ag23
aS'.'
aa(lp300
g10
ag23
ag16
ag20
ag25
aS'.'
aa(lp301
g10
ag23
ag18
ag20
ag4
aS'.'
aa(lp302
g10
ag23
ag18
ag20
ag6
aS'.'
aa(lp303
g10
ag23
ag18
ag20
ag23
aS'.'
aa(lp304
g10
ag23
ag18
ag20
ag25
aS'.'
aa(lp305
g10
ag23
ag39
aS'.'
aa(lp306
g10
ag23
ag41
aS'.'
aa(lp307
g10
ag23
ag43
aS'.'
aa(lp308
g10
ag23
ag45
aS'.'
aa(lp309
g10
ag23
ag39
ag20
ag47
aS'.'
aa(lp310
g10
ag23
ag39
ag20
ag49
aS'.'
aa(lp311
g10
ag23
ag39
ag20
ag51
aS'.'
aa(lp312
g10
ag23
ag39
ag20
ag53
aS'.'
aa(lp313
g10
ag23
ag41
ag20
ag47
aS'.'
aa(lp314
g10
ag23
ag41
ag20
ag49
aS'.'
aa(lp315
g10
ag23
ag41
ag20
ag51
aS'.'
aa(lp316
g10
ag23
ag41
ag20
ag53
aS'.'
aa(lp317
g10
ag23
ag43
ag20
ag47
aS'.'
aa(lp318
g10
ag23
ag43
ag20
ag49
aS'.'
aa(lp319
g10
ag23
ag43
ag20
ag51
aS'.'
aa(lp320
g10
ag23
ag43
ag20
ag53
aS'.'
aa(lp321
g10
ag23
ag45
ag20
ag47
aS'.'
aa(lp322
g10
ag23
ag45
ag20
ag49
aS'.'
aa(lp323
g10
ag23
ag45
ag20
ag51
aS'.'
aa(lp324
g10
ag23
ag45
ag20
ag53
aS'.'
aa(lp325
g10
ag25
ag3
aS'.'
aa(lp326
g10
ag25
ag10
aS'.'
aa(lp327
g10
ag25
ag12
aS'.'
aa(lp328
g10
ag25
ag14
aS'.'
aa(lp329
g10
ag25
ag16
aS'.'
aa(lp330
g10
ag25
ag18
aS'.'
aa(lp331
g10
ag25
ag12
ag20
ag4
aS'.'
aa(lp332
g10
ag25
ag12
ag20
ag6
aS'.'
aa(lp333
g10
ag25
ag12
ag20
ag23
aS'.'
aa(lp334
g10
ag25
ag12
ag20
ag25
aS'.'
aa(lp335
g10
ag25
ag14
ag20
ag4
aS'.'
aa(lp336
g10
ag25
ag14
ag20
ag6
aS'.'
aa(lp337
g10
ag25
ag14
ag20
ag23
aS'.'
aa(lp338
g10
ag25
ag14
ag20
ag25
aS'.'
aa(lp339
g10
ag25
ag16
ag20
ag4
aS'.'
aa(lp340
g10
ag25
ag16
ag20
ag6
aS'.'
aa(lp341
g10
ag25
ag16
ag20
ag23
aS'.'
aa(lp342
g10
ag25
ag16
ag20
ag25
aS'.'
aa(lp343
g10
ag25
ag18
ag20
ag4
aS'.'
aa(lp344
g10
ag25
ag18
ag20
ag6
aS'.'
aa(lp345
g10
ag25
ag18
ag20
ag23
aS'.'
aa(lp346
g10
ag25
ag18
ag20
ag25
aS'.'
aa(lp347
g10
ag25
ag39
aS'.'
aa(lp348
g10
ag25
ag41
aS'.'
aa(lp349
g10
ag25
ag43
aS'.'
aa(lp350
g10
ag25
ag45
aS'.'
aa(lp351
g10
ag25
ag39
ag20
ag47
aS'.'
aa(lp352
g10
ag25
ag39
ag20
ag49
aS'.'
aa(lp353
g10
ag25
ag39
ag20
ag51
aS'.'
aa(lp354
g10
ag25
ag39
ag20
ag53
aS'.'
aa(lp355
g10
ag25
ag41
ag20
ag47
aS'.'
aa(lp356
g10
ag25
ag41
ag20
ag49
aS'.'
aa(lp357
g10
ag25
ag41
ag20
ag51
aS'.'
aa(lp358
g10
ag25
ag41
ag20
ag53
aS'.'
aa(lp359
g10
ag25
ag43
ag20
ag47
aS'.'
aa(lp360
g10
ag25
ag43
ag20
ag49
aS'.'
aa(lp361
g10
ag25
ag43
ag20
ag51
aS'.'
aa(lp362
g10
ag25
ag43
ag20
ag53
aS'.'
aa(lp363
g10
ag25
ag45
ag20
ag47
aS'.'
aa(lp364
g10
ag25
ag45
ag20
ag49
aS'.'
aa(lp365
g10
ag25
ag45
ag20
ag51
aS'.'
aa(lp366
g10
ag25
ag45
ag20
ag53
aS'.'
aa(lp367
g12
ag4
aS'.'
aa(lp368
g12
ag6
aS'.'
aa(lp369
g12
ag8
ag3
aS'.'
aa(lp370
g12
ag8
ag10
aS'.'
aa(lp371
g12
ag8
ag12
aS'.'
aa(lp372
g12
ag8
ag14
aS'.'
aa(lp373
g12
ag8
ag16
aS'.'
aa(lp374
g12
ag8
ag18
aS'.'
aa(lp375
g12
ag8
ag12
ag20
ag4
aS'.'
aa(lp376
g12
ag8
ag12
ag20
ag6
aS'.'
aa(lp377
g12
ag8
ag12
ag20
ag23
aS'.'
aa(lp378
g12
ag8
ag12
ag20
ag25
aS'.'
aa(lp379
g12
ag8
ag14
ag20
ag4
aS'.'
aa(lp380
g12
ag8
ag14
ag20
ag6
aS'.'
aa(lp381
g12
ag8
ag14
ag20
ag23
aS'.'
aa(lp382
g12
ag8
ag14
ag20
ag25
aS'.'
aa(lp383
g12
ag8
ag16
ag20
ag4
aS'.'
aa(lp384
g12
ag8
ag16
ag20
ag6
aS'.'
aa(lp385
g12
ag8
ag16
ag20
ag23
aS'.'
aa(lp386
g12
ag8
ag16
ag20
ag25
aS'.'
aa(lp387
g12
ag8
ag18
ag20
ag4
aS'.'
aa(lp388
g12
ag8
ag18
ag20
ag6
aS'.'
aa(lp389
g12
ag8
ag18
ag20
ag23
aS'.'
aa(lp390
g12
ag8
ag18
ag20
ag25
aS'.'
aa(lp391
g12
ag8
ag39
aS'.'
aa(lp392
g12
ag8
ag41
aS'.'
aa(lp393
g12
ag8
ag43
aS'.'
aa(lp394
g12
ag8
ag45
aS'.'
aa(lp395
g12
ag8
ag39
ag20
ag47
aS'.'
aa(lp396
g12
ag8
ag39
ag20
ag49
aS'.'
aa(lp397
g12
ag8
ag39
ag20
ag51
aS'.'
aa(lp398
g12
ag8
ag39
ag20
ag53
aS'.'
aa(lp399
g12
ag8
ag41
ag20
ag47
aS'.'
aa(lp400
g12
ag8
ag41
ag20
ag49
aS'.'
aa(lp401
g12
ag8
ag41
ag20
ag51
aS'.'
aa(lp402
g12
ag8
ag41
ag20
ag53
aS'.'
aa(lp403
g12
ag8
ag43
ag20
ag47
aS'.'
aa(lp404
g12
ag8
ag43
ag20
ag49
aS'.'
aa(lp405
g12
ag8
ag43
ag20
ag51
aS'.'
aa(lp406
g12
ag8
ag43
ag20
ag53
aS'.'
aa(lp407
g12
ag8
ag45
ag20
ag47
aS'.'
aa(lp408
g12
ag8
ag45
ag20
ag49
aS'.'
aa(lp409
g12
ag8
ag45
ag20
ag51
aS'.'
aa(lp410
g12
ag8
ag45
ag20
ag53
aS'.'
aa(lp411
g12
ag67
ag3
aS'.'
aa(lp412
g12
ag67
ag10
aS'.'
aa(lp413
g12
ag67
ag12
aS'.'
aa(lp414
g12
ag67
ag14
aS'.'
aa(lp415
g12
ag67
ag16
aS'.'
aa(lp416
g12
ag67
ag18
aS'.'
aa(lp417
g12
ag67
ag12
ag20
ag4
aS'.'
aa(lp418
g12
ag67
ag12
ag20
ag6
aS'.'
aa(lp419
g12
ag67
ag12
ag20
ag23
aS'.'
aa(lp420
g12
ag67
ag12
ag20
ag25
aS'.'
aa(lp421
g12
ag67
ag14
ag20
ag4
aS'.'
aa(lp422
g12
ag67
ag14
ag20
ag6
aS'.'
aa(lp423
g12
ag67
ag14
ag20
ag23
aS'.'
aa(lp424
g12
ag67
ag14
ag20
ag25
aS'.'
aa(lp425
g12
ag67
ag16
ag20
ag4
aS'.'
aa(lp426
g12
ag67
ag16
ag20
ag6
aS'.'
aa(lp427
g12
ag67
ag16
ag20
ag23
aS'.'
aa(lp428
g12
ag67
ag16
ag20
ag25
aS'.'
aa(lp429
g12
ag67
ag18
ag20
ag4
aS'.'
aa(lp430
g12
ag67
ag18
ag20
ag6
aS'.'
aa(lp431
g12
ag67
ag18
ag20
ag23
aS'.'
aa(lp432
g12
ag67
ag18
ag20
ag25
aS'.'
aa(lp433
g12
ag67
ag39
aS'.'
aa(lp434
g12
ag67
ag41
aS'.'
aa(lp435
g12
ag67
ag43
aS'.'
aa(lp436
g12
ag67
ag45
aS'.'
aa(lp437
g12
ag67
ag39
ag20
ag47
aS'.'
aa(lp438
g12
ag67
ag39
ag20
ag49
aS'.'
aa(lp439
g12
ag67
ag39
ag20
ag51
aS'.'
aa(lp440
g12
ag67
ag39
ag20
ag53
aS'.'
aa(lp441
g12
ag67
ag41
ag20
ag47
aS'.'
aa(lp442
g12
ag67
ag41
ag20
ag49
aS'.'
aa(lp443
g12
ag67
ag41
ag20
ag51
aS'.'
aa(lp444
g12
ag67
ag41
ag20
ag53
aS'.'
aa(lp445
g12
ag67
ag43
ag20
ag47
aS'.'
aa(lp446
g12
ag67
ag43
ag20
ag49
aS'.'
aa(lp447
g12
ag67
ag43
ag20
ag51
aS'.'
aa(lp448
g12
ag67
ag43
ag20
ag53
aS'.'
aa(lp449
g12
ag67
ag45
ag20
ag47
aS'.'
aa(lp450
g12
ag67
ag45
ag20
ag49
aS'.'
aa(lp451
g12
ag67
ag45
ag20
ag51
aS'.'
aa(lp452
g12
ag67
ag45
ag20
ag53
aS'.'
aa(lp453
g12
ag23
aS'.'
aa(lp454
g12
ag25
aS'.'
aa(lp455
g12
ag23
ag3
aS'.'
aa(lp456
g12
ag23
ag10
aS'.'
aa(lp457
g12
ag23
ag12
aS'.'
aa(lp458
g12
ag23
ag14
aS'.'
aa(lp459
g12
ag23
ag16
aS'.'
aa(lp460
g12
ag23
ag18
aS'.'
aa(lp461
g12
ag23
ag12
ag20
ag4
aS'.'
aa(lp462
g12
ag23
ag12
ag20
ag6
aS'.'
aa(lp463
g12
ag23
ag12
ag20
ag23
aS'.'
aa(lp464
g12
ag23
ag12
ag20
ag25
aS'.'
aa(lp465
g12
ag23
ag14
ag20
ag4
aS'.'
aa(lp466
g12
ag23
ag14
ag20
ag6
aS'.'
aa(lp467
g12
ag23
ag14
ag20
ag23
aS'.'
aa(lp468
g12
ag23
ag14
ag20
ag25
aS'.'
aa(lp469
g12
ag23
ag16
ag20
ag4
aS'.'
aa(lp470
g12
ag23
ag16
ag20
ag6
aS'.'
aa(lp471
g12
ag23
ag16
ag20
ag23
aS'.'
aa(lp472
g12
ag23
ag16
ag20
ag25
aS'.'
aa(lp473
g12
ag23
ag18
ag20
ag4
aS'.'
aa(lp474
g12
ag23
ag18
ag20
ag6
aS'.'
aa(lp475
g12
ag23
ag18
ag20
ag23
aS'.'
aa(lp476
g12
ag23
ag18
ag20
ag25
aS'.'
aa(lp477
g12
ag23
ag39
aS'.'
aa(lp478
g12
ag23
ag41
aS'.'
aa(lp479
g12
ag23
ag43
aS'.'
aa(lp480
g12
ag23
ag45
aS'.'
aa(lp481
g12
ag23
ag39
ag20
ag47
aS'.'
aa(lp482
g12
ag23
ag39
ag20
ag49
aS'.'
aa(lp483
g12
ag23
ag39
ag20
ag51
aS'.'
aa(lp484
g12
ag23
ag39
ag20
ag53
aS'.'
aa(lp485
g12
ag23
ag41
ag20
ag47
aS'.'
aa(lp486
g12
ag23
ag41
ag20
ag49
aS'.'
aa(lp487
g12
ag23
ag41
ag20
ag51
aS'.'
aa(lp488
g12
ag23
ag41
ag20
ag53
aS'.'
aa(lp489
g12
ag23
ag43
ag20
ag47
aS'.'
aa(lp490
g12
ag23
ag43
ag20
ag49
aS'.'
aa(lp491
g12
ag23
ag43
ag20
ag51
aS'.'
aa(lp492
g12
ag23
ag43
ag20
ag53
aS'.'
aa(lp493
g12
ag23
ag45
ag20
ag47
aS'.'
aa(lp494
g12
ag23
ag45
ag20
ag49
aS'.'
aa(lp495
g12
ag23
ag45
ag20
ag51
aS'.'
aa(lp496
g12
ag23
ag45
ag20
ag53
aS'.'
aa(lp497
g12
ag25
ag3
aS'.'
aa(lp498
g12
ag25
ag10
aS'.'
aa(lp499
g12
ag25
ag12
aS'.'
aa(lp500
g12
ag25
ag14
aS'.'
aa(lp501
g12
ag25
ag16
aS'.'
aa(lp502
g12
ag25
ag18
aS'.'
aa(lp503
g12
ag25
ag12
ag20
ag4
aS'.'
aa(lp504
g12
ag25
ag12
ag20
ag6
aS'.'
aa(lp505
g12
ag25
ag12
ag20
ag23
aS'.'
aa(lp506
g12
ag25
ag12
ag20
ag25
aS'.'
aa(lp507
g12
ag25
ag14
ag20
ag4
aS'.'
aa(lp508
g12
ag25
ag14
ag20
ag6
aS'.'
aa(lp509
g12
ag25
ag14
ag20
ag23
aS'.'
aa(lp510
g12
ag25
ag14
ag20
ag25
aS'.'
aa(lp511
g12
ag25
ag16
ag20
ag4
aS'.'
aa(lp512
g12
ag25
ag16
ag20
ag6
aS'.'
aa(lp513
g12
ag25
ag16
ag20
ag23
aS'.'
aa(lp514
g12
ag25
ag16
ag20
ag25
aS'.'
aa(lp515
g12
ag25
ag18
ag20
ag4
aS'.'
aa(lp516
g12
ag25
ag18
ag20
ag6
aS'.'
aa(lp517
g12
ag25
ag18
ag20
ag23
aS'.'
aa(lp518
g12
ag25
ag18
ag20
ag25
aS'.'
aa(lp519
g12
ag25
ag39
aS'.'
aa(lp520
g12
ag25
ag41
aS'.'
aa(lp521
g12
ag25
ag43
aS'.'
aa(lp522
g12
ag25
ag45
aS'.'
aa(lp523
g12
ag25
ag39
ag20
ag47
aS'.'
aa(lp524
g12
ag25
ag39
ag20
ag49
aS'.'
aa(lp525
g12
ag25
ag39
ag20
ag51
aS'.'
aa(lp526
g12
ag25
ag39
ag20
ag53
aS'.'
aa(lp527
g12
ag25
ag41
ag20
ag47
aS'.'
aa(lp528
g12
ag25
ag41
ag20
ag49
aS'.'
aa(lp529
g12
ag25
ag41
ag20
ag51
aS'.'
aa(lp530
g12
ag25
ag41
ag20
ag53
aS'.'
aa(lp531
g12
ag25
ag43
ag20
ag47
aS'.'
aa(lp532
g12
ag25
ag43
ag20
ag49
aS'.'
aa(lp533
g12
ag25
ag43
ag20
ag51
aS'.'
aa(lp534
g12
ag25
ag43
ag20
ag53
aS'.'
aa(lp535
g12
ag25
ag45
ag20
ag47
aS'.'
aa(lp536
g12
ag25
ag45
ag20
ag49
aS'.'
aa(lp537
g12
ag25
ag45
ag20
ag51
aS'.'
aa(lp538
g12
ag25
ag45
ag20
ag53
aS'.'
aa(lp539
g14
ag4
aS'.'
aa(lp540
g14
ag6
aS'.'
aa(lp541
g14
ag8
ag3
aS'.'
aa(lp542
g14
ag8
ag10
aS'.'
aa(lp543
g14
ag8
ag12
aS'.'
aa(lp544
g14
ag8
ag14
aS'.'
aa(lp545
g14
ag8
ag16
aS'.'
aa(lp546
g14
ag8
ag18
aS'.'
aa(lp547
g14
ag8
ag12
ag20
ag4
aS'.'
aa(lp548
g14
ag8
ag12
ag20
ag6
aS'.'
aa(lp549
g14
ag8
ag12
ag20
ag23
aS'.'
aa(lp550
g14
ag8
ag12
ag20
ag25
aS'.'
aa(lp551
g14
ag8
ag14
ag20
ag4
aS'.'
aa(lp552
g14
ag8
ag14
ag20
ag6
aS'.'
aa(lp553
g14
ag8
ag14
ag20
ag23
aS'.'
aa(lp554
g14
ag8
ag14
ag20
ag25
aS'.'
aa(lp555
g14
ag8
ag16
ag20
ag4
aS'.'
aa(lp556
g14
ag8
ag16
ag20
ag6
aS'.'
aa(lp557
g14
ag8
ag16
ag20
ag23
aS'.'
aa(lp558
g14
ag8
ag16
ag20
ag25
aS'.'
aa(lp559
g14
ag8
ag18
ag20
ag4
aS'.'
aa(lp560
g14
ag8
ag18
ag20
ag6
aS'.'
aa(lp561
g14
ag8
ag18
ag20
ag23
aS'.'
aa(lp562
g14
ag8
ag18
ag20
ag25
aS'.'
aa(lp563
g14
ag8
ag39
aS'.'
aa(lp564
g14
ag8
ag41
aS'.'
aa(lp565
g14
ag8
ag43
aS'.'
aa(lp566
g14
ag8
ag45
aS'.'
aa(lp567
g14
ag8
ag39
ag20
ag47
aS'.'
aa(lp568
g14
ag8
ag39
ag20
ag49
aS'.'
aa(lp569
g14
ag8
ag39
ag20
ag51
aS'.'
aa(lp570
g14
ag8
ag39
ag20
ag53
aS'.'
aa(lp571
g14
ag8
ag41
ag20
ag47
aS'.'
aa(lp572
g14
ag8
ag41
ag20
ag49
aS'.'
aa(lp573
g14
ag8
ag41
ag20
ag51
aS'.'
aa(lp574
g14
ag8
ag41
ag20
ag53
aS'.'
aa(lp575
g14
ag8
ag43
ag20
ag47
aS'.'
aa(lp576
g14
ag8
ag43
ag20
ag49
aS'.'
aa(lp577
g14
ag8
ag43
ag20
ag51
aS'.'
aa(lp578
g14
ag8
ag43
ag20
ag53
aS'.'
aa(lp579
g14
ag8
ag45
ag20
ag47
aS'.'
aa(lp580
g14
ag8
ag45
ag20
ag49
aS'.'
aa(lp581
g14
ag8
ag45
ag20
ag51
aS'.'
aa(lp582
g14
ag8
ag45
ag20
ag53
aS'.'
aa(lp583
g14
ag67
ag3
aS'.'
aa(lp584
g14
ag67
ag10
aS'.'
aa(lp585
g14
ag67
ag12
aS'.'
aa(lp586
g14
ag67
ag14
aS'.'
aa(lp587
g14
ag67
ag16
aS'.'
aa(lp588
g14
ag67
ag18
aS'.'
aa(lp589
g14
ag67
ag12
ag20
ag4
aS'.'
aa(lp590
g14
ag67
ag12
ag20
ag6
aS'.'
aa(lp591
g14
ag67
ag12
ag20
ag23
aS'.'
aa(lp592
g14
ag67
ag12
ag20
ag25
aS'.'
aa(lp593
g14
ag67
ag14
ag20
ag4
aS'.'
aa(lp594
g14
ag67
ag14
ag20
ag6
aS'.'
aa(lp595
g14
ag67
ag14
ag20
ag23
aS'.'
aa(lp596
g14
ag67
ag14
ag20
ag25
aS'.'
aa(lp597
g14
ag67
ag16
ag20
ag4
aS'.'
aa(lp598
g14
ag67
ag16
ag20
ag6
aS'.'
aa(lp599
g14
ag67
ag16
ag20
ag23
aS'.'
aa(lp600
g14
ag67
ag16
ag20
ag25
aS'.'
aa(lp601
g14
ag67
ag18
ag20
ag4
aS'.'
aa(lp602
g14
ag67
ag18
ag20
ag6
aS'.'
aa(lp603
g14
ag67
ag18
ag20
ag23
aS'.'
aa(lp604
g14
ag67
ag18
ag20
ag25
aS'.'
aa(lp605
g14
ag67
ag39
aS'.'
aa(lp606
g14
ag67
ag41
aS'.'
aa(lp607
g14
ag67
ag43
aS'.'
aa(lp608
g14
ag67
ag45
aS'.'
aa(lp609
g14
ag67
ag39
ag20
ag47
aS'.'
aa(lp610
g14
ag67
ag39
ag20
ag49
aS'.'
aa(lp611
g14
ag67
ag39
ag20
ag51
aS'.'
aa(lp612
g14
ag67
ag39
ag20
ag53
aS'.'
aa(lp613
g14
ag67
ag41
ag20
ag47
aS'.'
aa(lp614
g14
ag67
ag41
ag20
ag49
aS'.'
aa(lp615
g14
ag67
ag41
ag20
ag51
aS'.'
aa(lp616
g14
ag67
ag41
ag20
ag53
aS'.'
aa(lp617
g14
ag67
ag43
ag20
ag47
aS'.'
aa(lp618
g14
ag67
ag43
ag20
ag49
aS'.'
aa(lp619
g14
ag67
ag43
ag20
ag51
aS'.'
aa(lp620
g14
ag67
ag43
ag20
ag53
aS'.'
aa(lp621
g14
ag67
ag45
ag20
ag47
aS'.'
aa(lp622
g14
ag67
ag45
ag20
ag49
aS'.'
aa(lp623
g14
ag67
ag45
ag20
ag51
aS'.'
aa(lp624
g14
ag67
ag45
ag20
ag53
aS'.'
aa(lp625
g14
ag23
aS'.'
aa(lp626
g14
ag25
aS'.'
aa(lp627
g14
ag23
ag3
aS'.'
aa(lp628
g14
ag23
ag10
aS'.'
aa(lp629
g14
ag23
ag12
aS'.'
aa(lp630
g14
ag23
ag14
aS'.'
aa(lp631
g14
ag23
ag16
aS'.'
aa(lp632
g14
ag23
ag18
aS'.'
aa(lp633
g14
ag23
ag12
ag20
ag4
aS'.'
aa(lp634
g14
ag23
ag12
ag20
ag6
aS'.'
aa(lp635
g14
ag23
ag12
ag20
ag23
aS'.'
aa(lp636
g14
ag23
ag12
ag20
ag25
aS'.'
aa(lp637
g14
ag23
ag14
ag20
ag4
aS'.'
aa(lp638
g14
ag23
ag14
ag20
ag6
aS'.'
aa(lp639
g14
ag23
ag14
ag20
ag23
aS'.'
aa(lp640
g14
ag23
ag14
ag20
ag25
aS'.'
aa(lp641
g14
ag23
ag16
ag20
ag4
aS'.'
aa(lp642
g14
ag23
ag16
ag20
ag6
aS'.'
aa(lp643
g14
ag23
ag16
ag20
ag23
aS'.'
aa(lp644
g14
ag23
ag16
ag20
ag25
aS'.'
aa(lp645
g14
ag23
ag18
ag20
ag4
aS'.'
aa(lp646
g14
ag23
ag18
ag20
ag6
aS'.'
aa(lp647
g14
ag23
ag18
ag20
ag23
aS'.'
aa(lp648
g14
ag23
ag18
ag20
ag25
aS'.'
aa(lp649
g14
ag23
ag39
aS'.'
aa(lp650
g14
ag23
ag41
aS'.'
aa(lp651
g14
ag23
ag43
aS'.'
aa(lp652
g14
ag23
ag45
aS'.'
aa(lp653
g14
ag23
ag39
ag20
ag47
aS'.'
aa(lp654
g14
ag23
ag39
ag20
ag49
aS'.'
aa(lp655
g14
ag23
ag39
ag20
ag51
aS'.'
aa(lp656
g14
ag23
ag39
ag20
ag53
aS'.'
aa(lp657
g14
ag23
ag41
ag20
ag47
aS'.'
aa(lp658
g14
ag23
ag41
ag20
ag49
aS'.'
aa(lp659
g14
ag23
ag41
ag20
ag51
aS'.'
aa(lp660
g14
ag23
ag41
ag20
ag53
aS'.'
aa(lp661
g14
ag23
ag43
ag20
ag47
aS'.'
aa(lp662
g14
ag23
ag43
ag20
ag49
aS'.'
aa(lp663
g14
ag23
ag43
ag20
ag51
aS'.'
aa(lp664
g14
ag23
ag43
ag20
ag53
aS'.'
aa(lp665
g14
ag23
ag45
ag20
ag47
aS'.'
aa(lp666
g14
ag23
ag45
ag20
ag49
aS'.'
aa(lp667
g14
ag23
ag45
ag20
ag51
aS'.'
aa(lp668
g14
ag23
ag45
ag20
ag53
aS'.'
aa(lp669
g14
ag25
ag3
aS'.'
aa(lp670
g14
ag25
ag10
aS'.'
aa(lp671
g14
ag25
ag12
aS'.'
aa(lp672
g14
ag25
ag14
aS'.'
aa(lp673
g14
ag25
ag16
aS'.'
aa(lp674
g14
ag25
ag18
aS'.'
aa(lp675
g14
ag25
ag12
ag20
ag4
aS'.'
aa(lp676
g14
ag25
ag12
ag20
ag6
aS'.'
aa(lp677
g14
ag25
ag12
ag20
ag23
aS'.'
aa(lp678
g14
ag25
ag12
ag20
ag25
aS'.'
aa(lp679
g14
ag25
ag14
ag20
ag4
aS'.'
aa(lp680
g14
ag25
ag14
ag20
ag6
aS'.'
aa(lp681
g14
ag25
ag14
ag20
ag23
aS'.'
aa(lp682
g14
ag25
ag14
ag20
ag25
aS'.'
aa(lp683
g14
ag25
ag16
ag20
ag4
aS'.'
aa(lp684
g14
ag25
ag16
ag20
ag6
aS'.'
aa(lp685
g14
ag25
ag16
ag20
ag23
aS'.'
aa(lp686
g14
ag25
ag16
ag20
ag25
aS'.'
aa(lp687
g14
ag25
ag18
ag20
ag4
aS'.'
aa(lp688
g14
ag25
ag18
ag20
ag6
aS'.'
aa(lp689
g14
ag25
ag18
ag20
ag23
aS'.'
aa(lp690
g14
ag25
ag18
ag20
ag25
aS'.'
aa(lp691
g14
ag25
ag39
aS'.'
aa(lp692
g14
ag25
ag41
aS'.'
aa(lp693
g14
ag25
ag43
aS'.'
aa(lp694
g14
ag25
ag45
aS'.'
aa(lp695
g14
ag25
ag39
ag20
ag47
aS'.'
aa(lp696
g14
ag25
ag39
ag20
ag49
aS'.'
aa(lp697
g14
ag25
ag39
ag20
ag51
aS'.'
aa(lp698
g14
ag25
ag39
ag20
ag53
aS'.'
aa(lp699
g14
ag25
ag41
ag20
ag47
aS'.'
aa(lp700
g14
ag25
ag41
ag20
ag49
aS'.'
aa(lp701
g14
ag25
ag41
ag20
ag51
aS'.'
aa(lp702
g14
ag25
ag41
ag20
ag53
aS'.'
aa(lp703
g14
ag25
ag43
ag20
ag47
aS'.'
aa(lp704
g14
ag25
ag43
ag20
ag49
aS'.'
aa(lp705
g14
ag25
ag43
ag20
ag51
aS'.'
aa(lp706
g14
ag25
ag43
ag20
ag53
aS'.'
aa(lp707
g14
ag25
ag45
ag20
ag47
aS'.'
aa(lp708
g14
ag25
ag45
ag20
ag49
aS'.'
aa(lp709
g14
ag25
ag45
ag20
ag51
aS'.'
aa(lp710
g14
ag25
ag45
ag20
ag53
aS'.'
aa(lp711
g16
ag4
aS'.'
aa(lp712
g16
ag6
aS'.'
aa(lp713
g16
ag8
ag3
aS'.'
aa(lp714
g16
ag8
ag10
aS'.'
aa(lp715
g16
ag8
ag12
aS'.'
aa(lp716
g16
ag8
ag14
aS'.'
aa(lp717
g16
ag8
ag16
aS'.'
aa(lp718
g16
ag8
ag18
aS'.'
aa(lp719
g16
ag8
ag12
ag20
ag4
aS'.'
aa(lp720
g16
ag8
ag12
ag20
ag6
aS'.'
aa(lp721
g16
ag8
ag12
ag20
ag23
aS'.'
aa(lp722
g16
ag8
ag12
ag20
ag25
aS'.'
aa(lp723
g16
ag8
ag14
ag20
ag4
aS'.'
aa(lp724
g16
ag8
ag14
ag20
ag6
aS'.'
aa(lp725
g16
ag8
ag14
ag20
ag23
aS'.'
aa(lp726
g16
ag8
ag14
ag20
ag25
aS'.'
aa(lp727
g16
ag8
ag16
ag20
ag4
aS'.'
aa(lp728
g16
ag8
ag16
ag20
ag6
aS'.'
aa(lp729
g16
ag8
ag16
ag20
ag23
aS'.'
aa(lp730
g16
ag8
ag16
ag20
ag25
aS'.'
aa(lp731
g16
ag8
ag18
ag20
ag4
aS'.'
aa(lp732
g16
ag8
ag18
ag20
ag6
aS'.'
aa(lp733
g16
ag8
ag18
ag20
ag23
aS'.'
aa(lp734
g16
ag8
ag18
ag20
ag25
aS'.'
aa(lp735
g16
ag8
ag39
aS'.'
aa(lp736
g16
ag8
ag41
aS'.'
aa(lp737
g16
ag8
ag43
aS'.'
aa(lp738
g16
ag8
ag45
aS'.'
aa(lp739
g16
ag8
ag39
ag20
ag47
aS'.'
aa(lp740
g16
ag8
ag39
ag20
ag49
aS'.'
aa(lp741
g16
ag8
ag39
ag20
ag51
aS'.'
aa(lp742
g16
ag8
ag39
ag20
ag53
aS'.'
aa(lp743
g16
ag8
ag41
ag20
ag47
aS'.'
aa(lp744
g16
ag8
ag41
ag20
ag49
aS'.'
aa(lp745
g16
ag8
ag41
ag20
ag51
aS'.'
aa(lp746
g16
ag8
ag41
ag20
ag53
aS'.'
aa(lp747
g16
ag8
ag43
ag20
ag47
aS'.'
aa(lp748
g16
ag8
ag43
ag20
ag49
aS'.'
aa(lp749
g16
ag8
ag43
ag20
ag51
aS'.'
aa(lp750
g16
ag8
ag43
ag20
ag53
aS'.'
aa(lp751
g16
ag8
ag45
ag20
ag47
aS'.'
aa(lp752
g16
ag8
ag45
ag20
ag49
aS'.'
aa(lp753
g16
ag8
ag45
ag20
ag51
aS'.'
aa(lp754
g16
ag8
ag45
ag20
ag53
aS'.'
aa(lp755
g16
ag67
ag3
aS'.'
aa(lp756
g16
ag67
ag10
aS'.'
aa(lp757
g16
ag67
ag12
aS'.'
aa(lp758
g16
ag67
ag14
aS'.'
aa(lp759
g16
ag67
ag16
aS'.'
aa(lp760
g16
ag67
ag18
aS'.'
aa(lp761
g16
ag67
ag12
ag20
ag4
aS'.'
aa(lp762
g16
ag67
ag12
ag20
ag6
aS'.'
aa(lp763
g16
ag67
ag12
ag20
ag23
aS'.'
aa(lp764
g16
ag67
ag12
ag20
ag25
aS'.'
aa(lp765
g16
ag67
ag14
ag20
ag4
aS'.'
aa(lp766
g16
ag67
ag14
ag20
ag6
aS'.'
aa(lp767
g16
ag67
ag14
ag20
ag23
aS'.'
aa(lp768
g16
ag67
ag14
ag20
ag25
aS'.'
aa(lp769
g16
ag67
ag16
ag20
ag4
aS'.'
aa(lp770
g16
ag67
ag16
ag20
ag6
aS'.'
aa(lp771
g16
ag67
ag16
ag20
ag23
aS'.'
aa(lp772
g16
ag67
ag16
ag20
ag25
aS'.'
aa(lp773
g16
ag67
ag18
ag20
ag4
aS'.'
aa(lp774
g16
ag67
ag18
ag20
ag6
aS'.'
aa(lp775
g16
ag67
ag18
ag20
ag23
aS'.'
aa(lp776
g16
ag67
ag18
ag20
ag25
aS'.'
aa(lp777
g16
ag67
ag39
aS'.'
aa(lp778
g16
ag67
ag41
aS'.'
aa(lp779
g16
ag67
ag43
aS'.'
aa(lp780
g16
ag67
ag45
aS'.'
aa(lp781
g16
ag67
ag39
ag20
ag47
aS'.'
aa(lp782
g16
ag67
ag39
ag20
ag49
aS'.'
aa(lp783
g16
ag67
ag39
ag20
ag51
aS'.'
aa(lp784
g16
ag67
ag39
ag20
ag53
aS'.'
aa(lp785
g16
ag67
ag41
ag20
ag47
aS'.'
aa(lp786
g16
ag67
ag41
ag20
ag49
aS'.'
aa(lp787
g16
ag67
ag41
ag20
ag51
aS'.'
aa(lp788
g16
ag67
ag41
ag20
ag53
aS'.'
aa(lp789
g16
ag67
ag43
ag20
ag47
aS'.'
aa(lp790
g16
ag67
ag43
ag20
ag49
aS'.'
aa(lp791
g16
ag67
ag43
ag20
ag51
aS'.'
aa(lp792
g16
ag67
ag43
ag20
ag53
aS'.'
aa(lp793
g16
ag67
ag45
ag20
ag47
aS'.'
aa(lp794
g16
ag67
ag45
ag20
ag49
aS'.'
aa(lp795
g16
ag67
ag45
ag20
ag51
aS'.'
aa(lp796
g16
ag67
ag45
ag20
ag53
aS'.'
aa(lp797
g16
ag23
aS'.'
aa(lp798
g16
ag25
aS'.'
aa(lp799
g16
ag23
ag3
aS'.'
aa(lp800
g16
ag23
ag10
aS'.'
aa(lp801
g16
ag23
ag12
aS'.'
aa(lp802
g16
ag23
ag14
aS'.'
aa(lp803
g16
ag23
ag16
aS'.'
aa(lp804
g16
ag23
ag18
aS'.'
aa(lp805
g16
ag23
ag12
ag20
ag4
aS'.'
aa(lp806
g16
ag23
ag12
ag20
ag6
aS'.'
aa(lp807
g16
ag23
ag12
ag20
ag23
aS'.'
aa(lp808
g16
ag23
ag12
ag20
ag25
aS'.'
aa(lp809
g16
ag23
ag14
ag20
ag4
aS'.'
aa(lp810
g16
ag23
ag14
ag20
ag6
aS'.'
aa(lp811
g16
ag23
ag14
ag20
ag23
aS'.'
aa(lp812
g16
ag23
ag14
ag20
ag25
aS'.'
aa(lp813
g16
ag23
ag16
ag20
ag4
aS'.'
aa(lp814
g16
ag23
ag16
ag20
ag6
aS'.'
aa(lp815
g16
ag23
ag16
ag20
ag23
aS'.'
aa(lp816
g16
ag23
ag16
ag20
ag25
aS'.'
aa(lp817
g16
ag23
ag18
ag20
ag4
aS'.'
aa(lp818
g16
ag23
ag18
ag20
ag6
aS'.'
aa(lp819
g16
ag23
ag18
ag20
ag23
aS'.'
aa(lp820
g16
ag23
ag18
ag20
ag25
aS'.'
aa(lp821
g16
ag23
ag39
aS'.'
aa(lp822
g16
ag23
ag41
aS'.'
aa(lp823
g16
ag23
ag43
aS'.'
aa(lp824
g16
ag23
ag45
aS'.'
aa(lp825
g16
ag23
ag39
ag20
ag47
aS'.'
aa(lp826
g16
ag23
ag39
ag20
ag49
aS'.'
aa(lp827
g16
ag23
ag39
ag20
ag51
aS'.'
aa(lp828
g16
ag23
ag39
ag20
ag53
aS'.'
aa(lp829
g16
ag23
ag41
ag20
ag47
aS'.'
aa(lp830
g16
ag23
ag41
ag20
ag49
aS'.'
aa(lp831
g16
ag23
ag41
ag20
ag51
aS'.'
aa(lp832
g16
ag23
ag41
ag20
ag53
aS'.'
aa(lp833
g16
ag23
ag43
ag20
ag47
aS'.'
aa(lp834
g16
ag23
ag43
ag20
ag49
aS'.'
aa(lp835
g16
ag23
ag43
ag20
ag51
aS'.'
aa(lp836
g16
ag23
ag43
ag20
ag53
aS'.'
aa(lp837
g16
ag23
ag45
ag20
ag47
aS'.'
aa(lp838
g16
ag23
ag45
ag20
ag49
aS'.'
aa(lp839
g16
ag23
ag45
ag20
ag51
aS'.'
aa(lp840
g16
ag23
ag45
ag20
ag53
aS'.'
aa(lp841
g16
ag25
ag3
aS'.'
aa(lp842
g16
ag25
ag10
aS'.'
aa(lp843
g16
ag25
ag12
aS'.'
aa(lp844
g16
ag25
ag14
aS'.'
aa(lp845
g16
ag25
ag16
aS'.'
aa(lp846
g16
ag25
ag18
aS'.'
aa(lp847
g16
ag25
ag12
ag20
ag4
aS'.'
aa(lp848
g16
ag25
ag12
ag20
ag6
aS'.'
aa(lp849
g16
ag25
ag12
ag20
ag23
aS'.'
aa(lp850
g16
ag25
ag12
ag20
ag25
aS'.'
aa(lp851
g16
ag25
ag14
ag20
ag4
aS'.'
aa(lp852
g16
ag25
ag14
ag20
ag6
aS'.'
aa(lp853
g16
ag25
ag14
ag20
ag23
aS'.'
aa(lp854
g16
ag25
ag14
ag20
ag25
aS'.'
aa(lp855
g16
ag25
ag16
ag20
ag4
aS'.'
aa(lp856
g16
ag25
ag16
ag20
ag6
aS'.'
aa(lp857
g16
ag25
ag16
ag20
ag23
aS'.'
aa(lp858
g16
ag25
ag16
ag20
ag25
aS'.'
aa(lp859
g16
ag25
ag18
ag20
ag4
aS'.'
aa(lp860
g16
ag25
ag18
ag20
ag6
aS'.'
aa(lp861
g16
ag25
ag18
ag20
ag23
aS'.'
aa(lp862
g16
ag25
ag18
ag20
ag25
aS'.'
aa(lp863
g16
ag25
ag39
aS'.'
aa(lp864
g16
ag25
ag41
aS'.'
aa(lp865
g16
ag25
ag43
aS'.'
aa(lp866
g16
ag25
ag45
aS'.'
aa(lp867
g16
ag25
ag39
ag20
ag47
aS'.'
aa(lp868
g16
ag25
ag39
ag20
ag49
aS'.'
aa(lp869
g16
ag25
ag39
ag20
ag51
aS'.'
aa(lp870
g16
ag25
ag39
ag20
ag53
aS'.'
aa(lp871
g16
ag25
ag41
ag20
ag47
aS'.'
aa(lp872
g16
ag25
ag41
ag20
ag49
aS'.'
aa(lp873
g16
ag25
ag41
ag20
ag51
aS'.'
aa(lp874
g16
ag25
ag41
ag20
ag53
aS'.'
aa(lp875
g16
ag25
ag43
ag20
ag47
aS'.'
aa(lp876
g16
ag25
ag43
ag20
ag49
aS'.'
aa(lp877
g16
ag25
ag43
ag20
ag51
aS'.'
aa(lp878
g16
ag25
ag43
ag20
ag53
aS'.'
aa(lp879
g16
ag25
ag45
ag20
ag47
aS'.'
aa(lp880
g16
ag25
ag45
ag20
ag49
aS'.'
aa(lp881
g16
ag25
ag45
ag20
ag51
aS'.'
aa(lp882
g16
ag25
ag45
ag20
ag53
aS'.'
aa(lp883
g18
ag4
aS'.'
aa(lp884
g18
ag6
aS'.'
aa(lp885
g18
ag8
ag3
aS'.'
aa(lp886
g18
ag8
ag10
aS'.'
aa(lp887
g18
ag8
ag12
aS'.'
aa(lp888
g18
ag8
ag14
aS'.'
aa(lp889
g18
ag8
ag16
aS'.'
aa(lp890
g18
ag8
ag18
aS'.'
aa(lp891
g18
ag8
ag12
ag20
ag4
aS'.'
aa(lp892
g18
ag8
ag12
ag20
ag6
aS'.'
aa(lp893
g18
ag8
ag12
ag20
ag23
aS'.'
aa(lp894
g18
ag8
ag12
ag20
ag25
aS'.'
aa(lp895
g18
ag8
ag14
ag20
ag4
aS'.'
aa(lp896
g18
ag8
ag14
ag20
ag6
aS'.'
aa(lp897
g18
ag8
ag14
ag20
ag23
aS'.'
aa(lp898
g18
ag8
ag14
ag20
ag25
aS'.'
aa(lp899
g18
ag8
ag16
ag20
ag4
aS'.'
aa(lp900
g18
ag8
ag16
ag20
ag6
aS'.'
aa(lp901
g18
ag8
ag16
ag20
ag23
aS'.'
aa(lp902
g18
ag8
ag16
ag20
ag25
aS'.'
aa(lp903
g18
ag8
ag18
ag20
ag4
aS'.'
aa(lp904
g18
ag8
ag18
ag20
ag6
aS'.'
aa(lp905
g18
ag8
ag18
ag20
ag23
aS'.'
aa(lp906
g18
ag8
ag18
ag20
ag25
aS'.'
aa(lp907
g18
ag8
ag39
aS'.'
aa(lp908
g18
ag8
ag41
aS'.'
aa(lp909
g18
ag8
ag43
aS'.'
aa(lp910
g18
ag8
ag45
aS'.'
aa(lp911
g18
ag8
ag39
ag20
ag47
aS'.'
aa(lp912
g18
ag8
ag39
ag20
ag49
aS'.'
aa(lp913
g18
ag8
ag39
ag20
ag51
aS'.'
aa(lp914
g18
ag8
ag39
ag20
ag53
aS'.'
aa(lp915
g18
ag8
ag41
ag20
ag47
aS'.'
aa(lp916
g18
ag8
ag41
ag20
ag49
aS'.'
aa(lp917
g18
ag8
ag41
ag20
ag51
aS'.'
aa(lp918
g18
ag8
ag41
ag20
ag53
aS'.'
aa(lp919
g18
ag8
ag43
ag20
ag47
aS'.'
aa(lp920
g18
ag8
ag43
ag20
ag49
aS'.'
aa(lp921
g18
ag8
ag43
ag20
ag51
aS'.'
aa(lp922
g18
ag8
ag43
ag20
ag53
aS'.'
aa(lp923
g18
ag8
ag45
ag20
ag47
aS'.'
aa(lp924
g18
ag8
ag45
ag20
ag49
aS'.'
aa(lp925
g18
ag8
ag45
ag20
ag51
aS'.'
aa(lp926
g18
ag8
ag45
ag20
ag53
aS'.'
aa(lp927
g18
ag67
ag3
aS'.'
aa(lp928
g18
ag67
ag10
aS'.'
aa(lp929
g18
ag67
ag12
aS'.'
aa(lp930
g18
ag67
ag14
aS'.'
aa(lp931
g18
ag67
ag16
aS'.'
aa(lp932
g18
ag67
ag18
aS'.'
aa(lp933
g18
ag67
ag12
ag20
ag4
aS'.'
aa(lp934
g18
ag67
ag12
ag20
ag6
aS'.'
aa(lp935
g18
ag67
ag12
ag20
ag23
aS'.'
aa(lp936
g18
ag67
ag12
ag20
ag25
aS'.'
aa(lp937
g18
ag67
ag14
ag20
ag4
aS'.'
aa(lp938
g18
ag67
ag14
ag20
ag6
aS'.'
aa(lp939
g18
ag67
ag14
ag20
ag23
aS'.'
aa(lp940
g18
ag67
ag14
ag20
ag25
aS'.'
aa(lp941
g18
ag67
ag16
ag20
ag4
aS'.'
aa(lp942
g18
ag67
ag16
ag20
ag6
aS'.'
aa(lp943
g18
ag67
ag16
ag20
ag23
aS'.'
aa(lp944
g18
ag67
ag16
ag20
ag25
aS'.'
aa(lp945
g18
ag67
ag18
ag20
ag4
aS'.'
aa(lp946
g18
ag67
ag18
ag20
ag6
aS'.'
aa(lp947
g18
ag67
ag18
ag20
ag23
aS'.'
aa(lp948
g18
ag67
ag18
ag20
ag25
aS'.'
aa(lp949
g18
ag67
ag39
aS'.'
aa(lp950
g18
ag67
ag41
aS'.'
aa(lp951
g18
ag67
ag43
aS'.'
aa(lp952
g18
ag67
ag45
aS'.'
aa(lp953
g18
ag67
ag39
ag20
ag47
aS'.'
aa(lp954
g18
ag67
ag39
ag20
ag49
aS'.'
aa(lp955
g18
ag67
ag39
ag20
ag51
aS'.'
aa(lp956
g18
ag67
ag39
ag20
ag53
aS'.'
aa(lp957
g18
ag67
ag41
ag20
ag47
aS'.'
aa(lp958
g18
ag67
ag41
ag20
ag49
aS'.'
aa(lp959
g18
ag67
ag41
ag20
ag51
aS'.'
aa(lp960
g18
ag67
ag41
ag20
ag53
aS'.'
aa(lp961
g18
ag67
ag43
ag20
ag47
aS'.'
aa(lp962
g18
ag67
ag43
ag20
ag49
aS'.'
aa(lp963
g18
ag67
ag43
ag20
ag51
aS'.'
aa(lp964
g18
ag67
ag43
ag20
ag53
aS'.'
aa(lp965
g18
ag67
ag45
ag20
ag47
aS'.'
aa(lp966
g18
ag67
ag45
ag20
ag49
aS'.'
aa(lp967
g18
ag67
ag45
ag20
ag51
aS'.'
aa(lp968
g18
ag67
ag45
ag20
ag53
aS'.'
aa(lp969
g18
ag23
aS'.'
aa(lp970
g18
ag25
aS'.'
aa(lp971
g18
ag23
ag3
aS'.'
aa(lp972
g18
ag23
ag10
aS'.'
aa(lp973
g18
ag23
ag12
aS'.'
aa(lp974
g18
ag23
ag14
aS'.'
aa(lp975
g18
ag23
ag16
aS'.'
aa(lp976
g18
ag23
ag18
aS'.'
aa(lp977
g18
ag23
ag12
ag20
ag4
aS'.'
aa(lp978
g18
ag23
ag12
ag20
ag6
aS'.'
aa(lp979
g18
ag23
ag12
ag20
ag23
aS'.'
aa(lp980
g18
ag23
ag12
ag20
ag25
aS'.'
aa(lp981
g18
ag23
ag14
ag20
ag4
aS'.'
aa(lp982
g18
ag23
ag14
ag20
ag6
aS'.'
aa(lp983
g18
ag23
ag14
ag20
ag23
aS'.'
aa(lp984
g18
ag23
ag14
ag20
ag25
aS'.'
aa(lp985
g18
ag23
ag16
ag20
ag4
aS'.'
aa(lp986
g18
ag23
ag16
ag20
ag6
aS'.'
aa(lp987
g18
ag23
ag16
ag20
ag23
aS'.'
aa(lp988
g18
ag23
ag16
ag20
ag25
aS'.'
aa(lp989
g18
ag23
ag18
ag20
ag4
aS'.'
aa(lp990
g18
ag23
ag18
ag20
ag6
aS'.'
aa(lp991
g18
ag23
ag18
ag20
ag23
aS'.'
aa(lp992
g18
ag23
ag18
ag20
ag25
aS'.'
aa(lp993
g18
ag23
ag39
aS'.'
aa(lp994
g18
ag23
ag41
aS'.'
aa(lp995
g18
ag23
ag43
aS'.'
aa(lp996
g18
ag23
ag45
aS'.'
aa(lp997
g18
ag23
ag39
ag20
ag47
aS'.'
aa(lp998
g18
ag23
ag39
ag20
ag49
aS'.'
aa(lp999
g18
ag23
ag39
ag20
ag51
aS'.'
aa(lp1000
g18
ag23
ag39
ag20
ag53
aS'.'
aa(lp1001
g18
ag23
ag41
ag20
ag47
aS'.'
aa(lp1002
g18
ag23
ag41
ag20
ag49
aS'.'
aa(lp1003
g18
ag23
ag41
ag20
ag51
aS'.'
aa(lp1004
g18
ag23
ag41
ag20
ag53
aS'.'
aa(lp1005
g18
ag23
ag43
ag20
ag47
aS'.'
aa(lp1006
g18
ag23
ag43
ag20
ag49
aS'.'
aa(lp1007
g18
ag23
ag43
ag20
ag51
aS'.'
aa(lp1008
g18
ag23
ag43
ag20
ag53
aS'.'
aa(lp1009
g18
ag23
ag45
ag20
ag47
aS'.'
aa(lp1010
g18
ag23
ag45
ag20
ag49
aS'.'
aa(lp1011
g18
ag23
ag45
ag20
ag51
aS'.'
aa(lp1012
g18
ag23
ag45
ag20
ag53
aS'.'
aa(lp1013
g18
ag25
ag3
aS'.'
aa(lp1014
g18
ag25
ag10
aS'.'
aa(lp1015
g18
ag25
ag12
aS'.'
aa(lp1016
g18
ag25
ag14
aS'.'
aa(lp1017
g18
ag25
ag16
aS'.'
aa(lp1018
g18
ag25
ag18
aS'.'
aa(lp1019
g18
ag25
ag12
ag20
ag4
aS'.'
aa(lp1020
g18
ag25
ag12
ag20
ag6
aS'.'
aa(lp1021
g18
ag25
ag12
ag20
ag23
aS'.'
aa(lp1022
g18
ag25
ag12
ag20
ag25
aS'.'
aa(lp1023
g18
ag25
ag14
ag20
ag4
aS'.'
aa(lp1024
g18
ag25
ag14
ag20
ag6
aS'.'
aa(lp1025
g18
ag25
ag14
ag20
ag23
aS'.'
aa(lp1026
g18
ag25
ag14
ag20
ag25
aS'.'
aa(lp1027
g18
ag25
ag16
ag20
ag4
aS'.'
aa(lp1028
g18
ag25
ag16
ag20
ag6
aS'.'
aa(lp1029
g18
ag25
ag16
ag20
ag23
aS'.'
aa(lp1030
g18
ag25
ag16
ag20
ag25
aS'.'
aa(lp1031
g18
ag25
ag18
ag20
ag4
aS'.'
aa(lp1032
g18
ag25
ag18
ag20
ag6
aS'.'
aa(lp1033
g18
ag25
ag18
ag20
ag23
aS'.'
aa(lp1034
g18
ag25
ag18
ag20
ag25
aS'.'
aa(lp1035
g18
ag25
ag39
aS'.'
aa(lp1036
g18
ag25
ag41
aS'.'
aa(lp1037
g18
ag25
ag43
aS'.'
aa(lp1038
g18
ag25
ag45
aS'.'
aa(lp1039
g18
ag25
ag39
ag20
ag47
aS'.'
aa(lp1040
g18
ag25
ag39
ag20
ag49
aS'.'
aa(lp1041
g18
ag25
ag39
ag20
ag51
aS'.'
aa(lp1042
g18
ag25
ag39
ag20
ag53
aS'.'
aa(lp1043
g18
ag25
ag41
ag20
ag47
aS'.'
aa(lp1044
g18
ag25
ag41
ag20
ag49
aS'.'
aa(lp1045
g18
ag25
ag41
ag20
ag51
aS'.'
aa(lp1046
g18
ag25
ag41
ag20
ag53
aS'.'
aa(lp1047
g18
ag25
ag43
ag20
ag47
aS'.'
aa(lp1048
g18
ag25
ag43
ag20
ag49
aS'.'
aa(lp1049
g18
ag25
ag43
ag20
ag51
aS'.'
aa(lp1050
g18
ag25
ag43
ag20
ag53
aS'.'
aa(lp1051
g18
ag25
ag45
ag20
ag47
aS'.'
aa(lp1052
g18
ag25
ag45
ag20
ag49
aS'.'
aa(lp1053
g18
ag25
ag45
ag20
ag51
aS'.'
aa(lp1054
g18
ag25
ag45
ag20
ag53
aS'.'
aa(lp1055
g12
ag20
ag3
ag8
ag4
aS'.'
aa(lp1056
g12
ag20
ag3
ag8
ag6
aS'.'
aa(lp1057
g12
ag20
ag3
ag8
ag23
aS'.'
aa(lp1058
g12
ag20
ag3
ag8
ag25
aS'.'
aa(lp1059
g12
ag20
ag3
ag67
ag4
aS'.'
aa(lp1060
g12
ag20
ag3
ag67
ag6
aS'.'
aa(lp1061
g12
ag20
ag3
ag67
ag23
aS'.'
aa(lp1062
g12
ag20
ag3
ag67
ag25
aS'.'
aa(lp1063
g12
ag20
ag10
ag8
ag4
aS'.'
aa(lp1064
g12
ag20
ag10
ag8
ag6
aS'.'
aa(lp1065
g12
ag20
ag10
ag8
ag23
aS'.'
aa(lp1066
g12
ag20
ag10
ag8
ag25
aS'.'
aa(lp1067
g12
ag20
ag10
ag67
ag4
aS'.'
aa(lp1068
g12
ag20
ag10
ag67
ag6
aS'.'
aa(lp1069
g12
ag20
ag10
ag67
ag23
aS'.'
aa(lp1070
g12
ag20
ag10
ag67
ag25
aS'.'
aa(lp1071
g12
ag20
ag12
ag8
ag4
aS'.'
aa(lp1072
g12
ag20
ag12
ag8
ag6
aS'.'
aa(lp1073
g12
ag20
ag12
ag8
ag23
aS'.'
aa(lp1074
g12
ag20
ag12
ag8
ag25
aS'.'
aa(lp1075
g12
ag20
ag12
ag67
ag4
aS'.'
aa(lp1076
g12
ag20
ag12
ag67
ag6
aS'.'
aa(lp1077
g12
ag20
ag12
ag67
ag23
aS'.'
aa(lp1078
g12
ag20
ag12
ag67
ag25
aS'.'
aa(lp1079
g12
ag20
ag14
ag8
ag4
aS'.'
aa(lp1080
g12
ag20
ag14
ag8
ag6
aS'.'
aa(lp1081
g12
ag20
ag14
ag8
ag23
aS'.'
aa(lp1082
g12
ag20
ag14
ag8
ag25
aS'.'
aa(lp1083
g12
ag20
ag14
ag67
ag4
aS'.'
aa(lp1084
g12
ag20
ag14
ag67
ag6
aS'.'
aa(lp1085
g12
ag20
ag14
ag67
ag23
aS'.'
aa(lp1086
g12
ag20
ag14
ag67
ag25
aS'.'
aa(lp1087
g12
ag20
ag16
ag8
ag4
aS'.'
aa(lp1088
g12
ag20
ag16
ag8
ag6
aS'.'
aa(lp1089
g12
ag20
ag16
ag8
ag23
aS'.'
aa(lp1090
g12
ag20
ag16
ag8
ag25
aS'.'
aa(lp1091
g12
ag20
ag16
ag67
ag4
aS'.'
aa(lp1092
g12
ag20
ag16
ag67
ag6
aS'.'
aa(lp1093
g12
ag20
ag16
ag67
ag23
aS'.'
aa(lp1094
g12
ag20
ag16
ag67
ag25
aS'.'
aa(lp1095
g12
ag20
ag18
ag8
ag4
aS'.'
aa(lp1096
g12
ag20
ag18
ag8
ag6
aS'.'
aa(lp1097
g12
ag20
ag18
ag8
ag23
aS'.'
aa(lp1098
g12
ag20
ag18
ag8
ag25
aS'.'
aa(lp1099
g12
ag20
ag18
ag67
ag4
aS'.'
aa(lp1100
g12
ag20
ag18
ag67
ag6
aS'.'
aa(lp1101
g12
ag20
ag18
ag67
ag23
aS'.'
aa(lp1102
g12
ag20
ag18
ag67
ag25
aS'.'
aa(lp1103
g12
ag20
ag39
aS'hit'
p1104
ag4
aS'.'
aa(lp1105
g12
ag20
ag39
ag1104
ag6
aS'.'
aa(lp1106
g12
ag20
ag39
ag1104
ag23
aS'.'
aa(lp1107
g12
ag20
ag39
ag1104
ag25
aS'.'
aa(lp1108
g12
ag20
ag39
aS'feed'
p1109
ag4
aS'.'
aa(lp1110
g12
ag20
ag39
ag1109
ag6
aS'.'
aa(lp1111
g12
ag20
ag39
ag1109
ag23
aS'.'
aa(lp1112
g12
ag20
ag39
ag1109
ag25
aS'.'
aa(lp1113
g12
ag20
ag41
ag1104
ag4
aS'.'
aa(lp1114
g12
ag20
ag41
ag1104
ag6
aS'.'
aa(lp1115
g12
ag20
ag41
ag1104
ag23
aS'.'
aa(lp1116
g12
ag20
ag41
ag1104
ag25
aS'.'
aa(lp1117
g12
ag20
ag41
ag1109
ag4
aS'.'
aa(lp1118
g12
ag20
ag41
ag1109
ag6
aS'.'
aa(lp1119
g12
ag20
ag41
ag1109
ag23
aS'.'
aa(lp1120
g12
ag20
ag41
ag1109
ag25
aS'.'
aa(lp1121
g12
ag20
ag43
ag1104
ag4
aS'.'
aa(lp1122
g12
ag20
ag43
ag1104
ag6
aS'.'
aa(lp1123
g12
ag20
ag43
ag1104
ag23
aS'.'
aa(lp1124
g12
ag20
ag43
ag1104
ag25
aS'.'
aa(lp1125
g12
ag20
ag43
ag1109
ag4
aS'.'
aa(lp1126
g12
ag20
ag43
ag1109
ag6
aS'.'
aa(lp1127
g12
ag20
ag43
ag1109
ag23
aS'.'
aa(lp1128
g12
ag20
ag43
ag1109
ag25
aS'.'
aa(lp1129
g12
ag20
ag45
ag1104
ag4
aS'.'
aa(lp1130
g12
ag20
ag45
ag1104
ag6
aS'.'
aa(lp1131
g12
ag20
ag45
ag1104
ag23
aS'.'
aa(lp1132
g12
ag20
ag45
ag1104
ag25
aS'.'
aa(lp1133
g12
ag20
ag45
ag1109
ag4
aS'.'
aa(lp1134
g12
ag20
ag45
ag1109
ag6
aS'.'
aa(lp1135
g12
ag20
ag45
ag1109
ag23
aS'.'
aa(lp1136
g12
ag20
ag45
ag1109
ag25
aS'.'
aa(lp1137
g12
ag20
ag4
ag4
aS'.'
aa(lp1138
g12
ag20
ag4
ag6
aS'.'
aa(lp1139
g12
ag20
ag4
ag8
ag3
aS'.'
aa(lp1140
g12
ag20
ag4
ag8
ag10
aS'.'
aa(lp1141
g12
ag20
ag4
ag8
ag12
aS'.'
aa(lp1142
g12
ag20
ag4
ag8
ag14
aS'.'
aa(lp1143
g12
ag20
ag4
ag8
ag16
aS'.'
aa(lp1144
g12
ag20
ag4
ag8
ag18
aS'.'
aa(lp1145
g12
ag20
ag4
ag8
ag39
aS'.'
aa(lp1146
g12
ag20
ag4
ag8
ag41
aS'.'
aa(lp1147
g12
ag20
ag4
ag8
ag43
aS'.'
aa(lp1148
g12
ag20
ag4
ag8
ag45
aS'.'
aa(lp1149
g12
ag20
ag4
ag67
ag3
aS'.'
aa(lp1150
g12
ag20
ag4
ag67
ag10
aS'.'
aa(lp1151
g12
ag20
ag4
ag67
ag12
aS'.'
aa(lp1152
g12
ag20
ag4
ag67
ag14
aS'.'
aa(lp1153
g12
ag20
ag4
ag67
ag16
aS'.'
aa(lp1154
g12
ag20
ag4
ag67
ag18
aS'.'
aa(lp1155
g12
ag20
ag4
ag67
ag39
aS'.'
aa(lp1156
g12
ag20
ag4
ag67
ag41
aS'.'
aa(lp1157
g12
ag20
ag4
ag67
ag43
aS'.'
aa(lp1158
g12
ag20
ag4
ag67
ag45
aS'.'
aa(lp1159
g12
ag20
ag4
ag23
aS'.'
aa(lp1160
g12
ag20
ag4
ag25
aS'.'
aa(lp1161
g12
ag20
ag4
ag23
ag3
aS'.'
aa(lp1162
g12
ag20
ag4
ag23
ag10
aS'.'
aa(lp1163
g12
ag20
ag4
ag23
ag12
aS'.'
aa(lp1164
g12
ag20
ag4
ag23
ag14
aS'.'
aa(lp1165
g12
ag20
ag4
ag23
ag16
aS'.'
aa(lp1166
g12
ag20
ag4
ag23
ag18
aS'.'
aa(lp1167
g12
ag20
ag4
ag23
ag39
aS'.'
aa(lp1168
g12
ag20
ag4
ag23
ag41
aS'.'
aa(lp1169
g12
ag20
ag4
ag23
ag43
aS'.'
aa(lp1170
g12
ag20
ag4
ag23
ag45
aS'.'
aa(lp1171
g12
ag20
ag4
ag25
ag3
aS'.'
aa(lp1172
g12
ag20
ag4
ag25
ag10
aS'.'
aa(lp1173
g12
ag20
ag4
ag25
ag12
aS'.'
aa(lp1174
g12
ag20
ag4
ag25
ag14
aS'.'
aa(lp1175
g12
ag20
ag4
ag25
ag16
aS'.'
aa(lp1176
g12
ag20
ag4
ag25
ag18
aS'.'
aa(lp1177
g12
ag20
ag4
ag25
ag39
aS'.'
aa(lp1178
g12
ag20
ag4
ag25
ag41
aS'.'
aa(lp1179
g12
ag20
ag4
ag25
ag43
aS'.'
aa(lp1180
g12
ag20
ag4
ag25
ag45
aS'.'
aa(lp1181
g12
ag20
ag6
ag4
aS'.'
aa(lp1182
g12
ag20
ag6
ag6
aS'.'
aa(lp1183
g12
ag20
ag6
ag8
ag3
aS'.'
aa(lp1184
g12
ag20
ag6
ag8
ag10
aS'.'
aa(lp1185
g12
ag20
ag6
ag8
ag12
aS'.'
aa(lp1186
g12
ag20
ag6
ag8
ag14
aS'.'
aa(lp1187
g12
ag20
ag6
ag8
ag16
aS'.'
aa(lp1188
g12
ag20
ag6
ag8
ag18
aS'.'
aa(lp1189
g12
ag20
ag6
ag8
ag39
aS'.'
aa(lp1190
g12
ag20
ag6
ag8
ag41
aS'.'
aa(lp1191
g12
ag20
ag6
ag8
ag43
aS'.'
aa(lp1192
g12
ag20
ag6
ag8
ag45
aS'.'
aa(lp1193
g12
ag20
ag6
ag67
ag3
aS'.'
aa(lp1194
g12
ag20
ag6
ag67
ag10
aS'.'
aa(lp1195
g12
ag20
ag6
ag67
ag12
aS'.'
aa(lp1196
g12
ag20
ag6
ag67
ag14
aS'.'
aa(lp1197
g12
ag20
ag6
ag67
ag16
aS'.'
aa(lp1198
g12
ag20
ag6
ag67
ag18
aS'.'
aa(lp1199
g12
ag20
ag6
ag67
ag39
aS'.'
aa(lp1200
g12
ag20
ag6
ag67
ag41
aS'.'
aa(lp1201
g12
ag20
ag6
ag67
ag43
aS'.'
aa(lp1202
g12
ag20
ag6
ag67
ag45
aS'.'
aa(lp1203
g12
ag20
ag6
ag23
aS'.'
aa(lp1204
g12
ag20
ag6
ag25
aS'.'
aa(lp1205
g12
ag20
ag6
ag23
ag3
aS'.'
aa(lp1206
g12
ag20
ag6
ag23
ag10
aS'.'
aa(lp1207
g12
ag20
ag6
ag23
ag12
aS'.'
aa(lp1208
g12
ag20
ag6
ag23
ag14
aS'.'
aa(lp1209
g12
ag20
ag6
ag23
ag16
aS'.'
aa(lp1210
g12
ag20
ag6
ag23
ag18
aS'.'
aa(lp1211
g12
ag20
ag6
ag23
ag39
aS'.'
aa(lp1212
g12
ag20
ag6
ag23
ag41
aS'.'
aa(lp1213
g12
ag20
ag6
ag23
ag43
aS'.'
aa(lp1214
g12
ag20
ag6
ag23
ag45
aS'.'
aa(lp1215
g12
ag20
ag6
ag25
ag3
aS'.'
aa(lp1216
g12
ag20
ag6
ag25
ag10
aS'.'
aa(lp1217
g12
ag20
ag6
ag25
ag12
aS'.'
aa(lp1218
g12
ag20
ag6
ag25
ag14
aS'.'
aa(lp1219
g12
ag20
ag6
ag25
ag16
aS'.'
aa(lp1220
g12
ag20
ag6
ag25
ag18
aS'.'
aa(lp1221
g12
ag20
ag6
ag25
ag39
aS'.'
aa(lp1222
g12
ag20
ag6
ag25
ag41
aS'.'
aa(lp1223
g12
ag20
ag6
ag25
ag43
aS'.'
aa(lp1224
g12
ag20
ag6
ag25
ag45
aS'.'
aa(lp1225
g12
ag20
ag8
ag3
ag4
aS'.'
aa(lp1226
g12
ag20
ag8
ag3
ag6
aS'.'
aa(lp1227
g12
ag20
ag8
ag3
ag23
aS'.'
aa(lp1228
g12
ag20
ag8
ag3
ag25
aS'.'
aa(lp1229
g12
ag20
ag8
ag10
ag4
aS'.'
aa(lp1230
g12
ag20
ag8
ag10
ag6
aS'.'
aa(lp1231
g12
ag20
ag8
ag10
ag23
aS'.'
aa(lp1232
g12
ag20
ag8
ag10
ag25
aS'.'
aa(lp1233
g12
ag20
ag8
ag12
ag4
aS'.'
aa(lp1234
g12
ag20
ag8
ag12
ag6
aS'.'
aa(lp1235
g12
ag20
ag8
ag12
ag23
aS'.'
aa(lp1236
g12
ag20
ag8
ag12
ag25
aS'.'
aa(lp1237
g12
ag20
ag8
ag14
ag4
aS'.'
aa(lp1238
g12
ag20
ag8
ag14
ag6
aS'.'
aa(lp1239
g12
ag20
ag8
ag14
ag23
aS'.'
aa(lp1240
g12
ag20
ag8
ag14
ag25
aS'.'
aa(lp1241
g12
ag20
ag8
ag16
ag4
aS'.'
aa(lp1242
g12
ag20
ag8
ag16
ag6
aS'.'
aa(lp1243
g12
ag20
ag8
ag16
ag23
aS'.'
aa(lp1244
g12
ag20
ag8
ag16
ag25
aS'.'
aa(lp1245
g12
ag20
ag8
ag18
ag4
aS'.'
aa(lp1246
g12
ag20
ag8
ag18
ag6
aS'.'
aa(lp1247
g12
ag20
ag8
ag18
ag23
aS'.'
aa(lp1248
g12
ag20
ag8
ag18
ag25
aS'.'
aa(lp1249
g12
ag20
ag8
ag39
ag4
aS'.'
aa(lp1250
g12
ag20
ag8
ag39
ag6
aS'.'
aa(lp1251
g12
ag20
ag8
ag39
ag23
aS'.'
aa(lp1252
g12
ag20
ag8
ag39
ag25
aS'.'
aa(lp1253
g12
ag20
ag8
ag41
ag4
aS'.'
aa(lp1254
g12
ag20
ag8
ag41
ag6
aS'.'
aa(lp1255
g12
ag20
ag8
ag41
ag23
aS'.'
aa(lp1256
g12
ag20
ag8
ag41
ag25
aS'.'
aa(lp1257
g12
ag20
ag8
ag43
ag4
aS'.'
aa(lp1258
g12
ag20
ag8
ag43
ag6
aS'.'
aa(lp1259
g12
ag20
ag8
ag43
ag23
aS'.'
aa(lp1260
g12
ag20
ag8
ag43
ag25
aS'.'
aa(lp1261
g12
ag20
ag8
ag45
ag4
aS'.'
aa(lp1262
g12
ag20
ag8
ag45
ag6
aS'.'
aa(lp1263
g12
ag20
ag8
ag45
ag23
aS'.'
aa(lp1264
g12
ag20
ag8
ag45
ag25
aS'.'
aa(lp1265
g12
ag20
ag67
ag3
ag4
aS'.'
aa(lp1266
g12
ag20
ag67
ag3
ag6
aS'.'
aa(lp1267
g12
ag20
ag67
ag3
ag23
aS'.'
aa(lp1268
g12
ag20
ag67
ag3
ag25
aS'.'
aa(lp1269
g12
ag20
ag67
ag10
ag4
aS'.'
aa(lp1270
g12
ag20
ag67
ag10
ag6
aS'.'
aa(lp1271
g12
ag20
ag67
ag10
ag23
aS'.'
aa(lp1272
g12
ag20
ag67
ag10
ag25
aS'.'
aa(lp1273
g12
ag20
ag67
ag12
ag4
aS'.'
aa(lp1274
g12
ag20
ag67
ag12
ag6
aS'.'
aa(lp1275
g12
ag20
ag67
ag12
ag23
aS'.'
aa(lp1276
g12
ag20
ag67
ag12
ag25
aS'.'
aa(lp1277
g12
ag20
ag67
ag14
ag4
aS'.'
aa(lp1278
g12
ag20
ag67
ag14
ag6
aS'.'
aa(lp1279
g12
ag20
ag67
ag14
ag23
aS'.'
aa(lp1280
g12
ag20
ag67
ag14
ag25
aS'.'
aa(lp1281
g12
ag20
ag67
ag16
ag4
aS'.'
aa(lp1282
g12
ag20
ag67
ag16
ag6
aS'.'
aa(lp1283
g12
ag20
ag67
ag16
ag23
aS'.'
aa(lp1284
g12
ag20
ag67
ag16
ag25
aS'.'
aa(lp1285
g12
ag20
ag67
ag18
ag4
aS'.'
aa(lp1286
g12
ag20
ag67
ag18
ag6
aS'.'
aa(lp1287
g12
ag20
ag67
ag18
ag23
aS'.'
aa(lp1288
g12
ag20
ag67
ag18
ag25
aS'.'
aa(lp1289
g12
ag20
ag67
ag39
ag4
aS'.'
aa(lp1290
g12
ag20
ag67
ag39
ag6
aS'.'
aa(lp1291
g12
ag20
ag67
ag39
ag23
aS'.'
aa(lp1292
g12
ag20
ag67
ag39
ag25
aS'.'
aa(lp1293
g12
ag20
ag67
ag41
ag4
aS'.'
aa(lp1294
g12
ag20
ag67
ag41
ag6
aS'.'
aa(lp1295
g12
ag20
ag67
ag41
ag23
aS'.'
aa(lp1296
g12
ag20
ag67
ag41
ag25
aS'.'
aa(lp1297
g12
ag20
ag67
ag43
ag4
aS'.'
aa(lp1298
g12
ag20
ag67
ag43
ag6
aS'.'
aa(lp1299
g12
ag20
ag67
ag43
ag23
aS'.'
aa(lp1300
g12
ag20
ag67
ag43
ag25
aS'.'
aa(lp1301
g12
ag20
ag67
ag45
ag4
aS'.'
aa(lp1302
g12
ag20
ag67
ag45
ag6
aS'.'
aa(lp1303
g12
ag20
ag67
ag45
ag23
aS'.'
aa(lp1304
g12
ag20
ag67
ag45
ag25
aS'.'
aa(lp1305
g12
ag20
ag23
ag4
aS'.'
aa(lp1306
g12
ag20
ag23
ag6
aS'.'
aa(lp1307
g12
ag20
ag23
ag8
ag3
aS'.'
aa(lp1308
g12
ag20
ag23
ag8
ag10
aS'.'
aa(lp1309
g12
ag20
ag23
ag8
ag12
aS'.'
aa(lp1310
g12
ag20
ag23
ag8
ag14
aS'.'
aa(lp1311
g12
ag20
ag23
ag8
ag16
aS'.'
aa(lp1312
g12
ag20
ag23
ag8
ag18
aS'.'
aa(lp1313
g12
ag20
ag23
ag8
ag39
aS'.'
aa(lp1314
g12
ag20
ag23
ag8
ag41
aS'.'
aa(lp1315
g12
ag20
ag23
ag8
ag43
aS'.'
aa(lp1316
g12
ag20
ag23
ag8
ag45
aS'.'
aa(lp1317
g12
ag20
ag23
ag67
ag3
aS'.'
aa(lp1318
g12
ag20
ag23
ag67
ag10
aS'.'
aa(lp1319
g12
ag20
ag23
ag67
ag12
aS'.'
aa(lp1320
g12
ag20
ag23
ag67
ag14
aS'.'
aa(lp1321
g12
ag20
ag23
ag67
ag16
aS'.'
aa(lp1322
g12
ag20
ag23
ag67
ag18
aS'.'
aa(lp1323
g12
ag20
ag23
ag67
ag39
aS'.'
aa(lp1324
g12
ag20
ag23
ag67
ag41
aS'.'
aa(lp1325
g12
ag20
ag23
ag67
ag43
aS'.'
aa(lp1326
g12
ag20
ag23
ag67
ag45
aS'.'
aa(lp1327
g12
ag20
ag23
ag23
aS'.'
aa(lp1328
g12
ag20
ag23
ag25
aS'.'
aa(lp1329
g12
ag20
ag23
ag23
ag3
aS'.'
aa(lp1330
g12
ag20
ag23
ag23
ag10
aS'.'
aa(lp1331
g12
ag20
ag23
ag23
ag12
aS'.'
aa(lp1332
g12
ag20
ag23
ag23
ag14
aS'.'
aa(lp1333
g12
ag20
ag23
ag23
ag16
aS'.'
aa(lp1334
g12
ag20
ag23
ag23
ag18
aS'.'
aa(lp1335
g12
ag20
ag23
ag23
ag39
aS'.'
aa(lp1336
g12
ag20
ag23
ag23
ag41
aS'.'
aa(lp1337
g12
ag20
ag23
ag23
ag43
aS'.'
aa(lp1338
g12
ag20
ag23
ag23
ag45
aS'.'
aa(lp1339
g12
ag20
ag23
ag25
ag3
aS'.'
aa(lp1340
g12
ag20
ag23
ag25
ag10
aS'.'
aa(lp1341
g12
ag20
ag23
ag25
ag12
aS'.'
aa(lp1342
g12
ag20
ag23
ag25
ag14
aS'.'
aa(lp1343
g12
ag20
ag23
ag25
ag16
aS'.'
aa(lp1344
g12
ag20
ag23
ag25
ag18
aS'.'
aa(lp1345
g12
ag20
ag23
ag25
ag39
aS'.'
aa(lp1346
g12
ag20
ag23
ag25
ag41
aS'.'
aa(lp1347
g12
ag20
ag23
ag25
ag43
aS'.'
aa(lp1348
g12
ag20
ag23
ag25
ag45
aS'.'
aa(lp1349
g12
ag20
ag25
ag4
aS'.'
aa(lp1350
g12
ag20
ag25
ag6
aS'.'
aa(lp1351
g12
ag20
ag25
ag8
ag3
aS'.'
aa(lp1352
g12
ag20
ag25
ag8
ag10
aS'.'
aa(lp1353
g12
ag20
ag25
ag8
ag12
aS'.'
aa(lp1354
g12
ag20
ag25
ag8
ag14
aS'.'
aa(lp1355
g12
ag20
ag25
ag8
ag16
aS'.'
aa(lp1356
g12
ag20
ag25
ag8
ag18
aS'.'
aa(lp1357
g12
ag20
ag25
ag8
ag39
aS'.'
aa(lp1358
g12
ag20
ag25
ag8
ag41
aS'.'
aa(lp1359
g12
ag20
ag25
ag8
ag43
aS'.'
aa(lp1360
g12
ag20
ag25
ag8
ag45
aS'.'
aa(lp1361
g12
ag20
ag25
ag67
ag3
aS'.'
aa(lp1362
g12
ag20
ag25
ag67
ag10
aS'.'
aa(lp1363
g12
ag20
ag25
ag67
ag12
aS'.'
aa(lp1364
g12
ag20
ag25
ag67
ag14
aS'.'
aa(lp1365
g12
ag20
ag25
ag67
ag16
aS'.'
aa(lp1366
g12
ag20
ag25
ag67
ag18
aS'.'
aa(lp1367
g12
ag20
ag25
ag67
ag39
aS'.'
aa(lp1368
g12
ag20
ag25
ag67
ag41
aS'.'
aa(lp1369
g12
ag20
ag25
ag67
ag43
aS'.'
aa(lp1370
g12
ag20
ag25
ag67
ag45
aS'.'
aa(lp1371
g12
ag20
ag25
ag23
aS'.'
aa(lp1372
g12
ag20
ag25
ag25
aS'.'
aa(lp1373
g12
ag20
ag25
ag23
ag3
aS'.'
aa(lp1374
g12
ag20
ag25
ag23
ag10
aS'.'
aa(lp1375
g12
ag20
ag25
ag23
ag12
aS'.'
aa(lp1376
g12
ag20
ag25
ag23
ag14
aS'.'
aa(lp1377
g12
ag20
ag25
ag23
ag16
aS'.'
aa(lp1378
g12
ag20
ag25
ag23
ag18
aS'.'
aa(lp1379
g12
ag20
ag25
ag23
ag39
aS'.'
aa(lp1380
g12
ag20
ag25
ag23
ag41
aS'.'
aa(lp1381
g12
ag20
ag25
ag23
ag43
aS'.'
aa(lp1382
g12
ag20
ag25
ag23
ag45
aS'.'
aa(lp1383
g12
ag20
ag25
ag25
ag3
aS'.'
aa(lp1384
g12
ag20
ag25
ag25
ag10
aS'.'
aa(lp1385
g12
ag20
ag25
ag25
ag12
aS'.'
aa(lp1386
g12
ag20
ag25
ag25
ag14
aS'.'
aa(lp1387
g12
ag20
ag25
ag25
ag16
aS'.'
aa(lp1388
g12
ag20
ag25
ag25
ag18
aS'.'
aa(lp1389
g12
ag20
ag25
ag25
ag39
aS'.'
aa(lp1390
g12
ag20
ag25
ag25
ag41
aS'.'
aa(lp1391
g12
ag20
ag25
ag25
ag43
aS'.'
aa(lp1392
g12
ag20
ag25
ag25
ag45
aS'.'
aa(lp1393
g12
ag20
ag23
ag3
ag4
aS'.'
aa(lp1394
g12
ag20
ag23
ag3
ag6
aS'.'
aa(lp1395
g12
ag20
ag23
ag3
ag23
aS'.'
aa(lp1396
g12
ag20
ag23
ag3
ag25
aS'.'
aa(lp1397
g12
ag20
ag23
ag10
ag4
aS'.'
aa(lp1398
g12
ag20
ag23
ag10
ag6
aS'.'
aa(lp1399
g12
ag20
ag23
ag10
ag23
aS'.'
aa(lp1400
g12
ag20
ag23
ag10
ag25
aS'.'
aa(lp1401
g12
ag20
ag23
ag12
ag4
aS'.'
aa(lp1402
g12
ag20
ag23
ag12
ag6
aS'.'
aa(lp1403
g12
ag20
ag23
ag12
ag23
aS'.'
aa(lp1404
g12
ag20
ag23
ag12
ag25
aS'.'
aa(lp1405
g12
ag20
ag23
ag14
ag4
aS'.'
aa(lp1406
g12
ag20
ag23
ag14
ag6
aS'.'
aa(lp1407
g12
ag20
ag23
ag14
ag23
aS'.'
aa(lp1408
g12
ag20
ag23
ag14
ag25
aS'.'
aa(lp1409
g12
ag20
ag23
ag16
ag4
aS'.'
aa(lp1410
g12
ag20
ag23
ag16
ag6
aS'.'
aa(lp1411
g12
ag20
ag23
ag16
ag23
aS'.'
aa(lp1412
g12
ag20
ag23
ag16
ag25
aS'.'
aa(lp1413
g12
ag20
ag23
ag18
ag4
aS'.'
aa(lp1414
g12
ag20
ag23
ag18
ag6
aS'.'
aa(lp1415
g12
ag20
ag23
ag18
ag23
aS'.'
aa(lp1416
g12
ag20
ag23
ag18
ag25
aS'.'
aa(lp1417
g12
ag20
ag23
ag39
ag4
aS'.'
aa(lp1418
g12
ag20
ag23
ag39
ag6
aS'.'
aa(lp1419
g12
ag20
ag23
ag39
ag23
aS'.'
aa(lp1420
g12
ag20
ag23
ag39
ag25
aS'.'
aa(lp1421
g12
ag20
ag23
ag41
ag4
aS'.'
aa(lp1422
g12
ag20
ag23
ag41
ag6
aS'.'
aa(lp1423
g12
ag20
ag23
ag41
ag23
aS'.'
aa(lp1424
g12
ag20
ag23
ag41
ag25
aS'.'
aa(lp1425
g12
ag20
ag23
ag43
ag4
aS'.'
aa(lp1426
g12
ag20
ag23
ag43
ag6
aS'.'
aa(lp1427
g12
ag20
ag23
ag43
ag23
aS'.'
aa(lp1428
g12
ag20
ag23
ag43
ag25
aS'.'
aa(lp1429
g12
ag20
ag23
ag45
ag4
aS'.'
aa(lp1430
g12
ag20
ag23
ag45
ag6
aS'.'
aa(lp1431
g12
ag20
ag23
ag45
ag23
aS'.'
aa(lp1432
g12
ag20
ag23
ag45
ag25
aS'.'
aa(lp1433
g12
ag20
ag25
ag3
ag4
aS'.'
aa(lp1434
g12
ag20
ag25
ag3
ag6
aS'.'
aa(lp1435
g12
ag20
ag25
ag3
ag23
aS'.'
aa(lp1436
g12
ag20
ag25
ag3
ag25
aS'.'
aa(lp1437
g12
ag20
ag25
ag10
ag4
aS'.'
aa(lp1438
g12
ag20
ag25
ag10
ag6
aS'.'
aa(lp1439
g12
ag20
ag25
ag10
ag23
aS'.'
aa(lp1440
g12
ag20
ag25
ag10
ag25
aS'.'
aa(lp1441
g12
ag20
ag25
ag12
ag4
aS'.'
aa(lp1442
g12
ag20
ag25
ag12
ag6
aS'.'
aa(lp1443
g12
ag20
ag25
ag12
ag23
aS'.'
aa(lp1444
g12
ag20
ag25
ag12
ag25
aS'.'
aa(lp1445
g12
ag20
ag25
ag14
ag4
aS'.'
aa(lp1446
g12
ag20
ag25
ag14
ag6
aS'.'
aa(lp1447
g12
ag20
ag25
ag14
ag23
aS'.'
aa(lp1448
g12
ag20
ag25
ag14
ag25
aS'.'
aa(lp1449
g12
ag20
ag25
ag16
ag4
aS'.'
aa(lp1450
g12
ag20
ag25
ag16
ag6
aS'.'
aa(lp1451
g12
ag20
ag25
ag16
ag23
aS'.'
aa(lp1452
g12
ag20
ag25
ag16
ag25
aS'.'
aa(lp1453
g12
ag20
ag25
ag18
ag4
aS'.'
aa(lp1454
g12
ag20
ag25
ag18
ag6
aS'.'
aa(lp1455
g12
ag20
ag25
ag18
ag23
aS'.'
aa(lp1456
g12
ag20
ag25
ag18
ag25
aS'.'
aa(lp1457
g12
ag20
ag25
ag39
ag4
aS'.'
aa(lp1458
g12
ag20
ag25
ag39
ag6
aS'.'
aa(lp1459
g12
ag20
ag25
ag39
ag23
aS'.'
aa(lp1460
g12
ag20
ag25
ag39
ag25
aS'.'
aa(lp1461
g12
ag20
ag25
ag41
ag4
aS'.'
aa(lp1462
g12
ag20
ag25
ag41
ag6
aS'.'
aa(lp1463
g12
ag20
ag25
ag41
ag23
aS'.'
aa(lp1464
g12
ag20
ag25
ag41
ag25
aS'.'
aa(lp1465
g12
ag20
ag25
ag43
ag4
aS'.'
aa(lp1466
g12
ag20
ag25
ag43
ag6
aS'.'
aa(lp1467
g12
ag20
ag25
ag43
ag23
aS'.'
aa(lp1468
g12
ag20
ag25
ag43
ag25
aS'.'
aa(lp1469
g12
ag20
ag25
ag45
ag4
aS'.'
aa(lp1470
g12
ag20
ag25
ag45
ag6
aS'.'
aa(lp1471
g12
ag20
ag25
ag45
ag23
aS'.'
aa(lp1472
g12
ag20
ag25
ag45
ag25
aS'.'
aa(lp1473
g14
ag20
ag3
ag8
ag4
aS'.'
aa(lp1474
g14
ag20
ag3
ag8
ag6
aS'.'
aa(lp1475
g14
ag20
ag3
ag8
ag23
aS'.'
aa(lp1476
g14
ag20
ag3
ag8
ag25
aS'.'
aa(lp1477
g14
ag20
ag3
ag67
ag4
aS'.'
aa(lp1478
g14
ag20
ag3
ag67
ag6
aS'.'
aa(lp1479
g14
ag20
ag3
ag67
ag23
aS'.'
aa(lp1480
g14
ag20
ag3
ag67
ag25
aS'.'
aa(lp1481
g14
ag20
ag10
ag8
ag4
aS'.'
aa(lp1482
g14
ag20
ag10
ag8
ag6
aS'.'
aa(lp1483
g14
ag20
ag10
ag8
ag23
aS'.'
aa(lp1484
g14
ag20
ag10
ag8
ag25
aS'.'
aa(lp1485
g14
ag20
ag10
ag67
ag4
aS'.'
aa(lp1486
g14
ag20
ag10
ag67
ag6
aS'.'
aa(lp1487
g14
ag20
ag10
ag67
ag23
aS'.'
aa(lp1488
g14
ag20
ag10
ag67
ag25
aS'.'
aa(lp1489
g14
ag20
ag12
ag8
ag4
aS'.'
aa(lp1490
g14
ag20
ag12
ag8
ag6
aS'.'
aa(lp1491
g14
ag20
ag12
ag8
ag23
aS'.'
aa(lp1492
g14
ag20
ag12
ag8
ag25
aS'.'
aa(lp1493
g14
ag20
ag12
ag67
ag4
aS'.'
aa(lp1494
g14
ag20
ag12
ag67
ag6
aS'.'
aa(lp1495
g14
ag20
ag12
ag67
ag23
aS'.'
aa(lp1496
g14
ag20
ag12
ag67
ag25
aS'.'
aa(lp1497
g14
ag20
ag14
ag8
ag4
aS'.'
aa(lp1498
g14
ag20
ag14
ag8
ag6
aS'.'
aa(lp1499
g14
ag20
ag14
ag8
ag23
aS'.'
aa(lp1500
g14
ag20
ag14
ag8
ag25
aS'.'
aa(lp1501
g14
ag20
ag14
ag67
ag4
aS'.'
aa(lp1502
g14
ag20
ag14
ag67
ag6
aS'.'
aa(lp1503
g14
ag20
ag14
ag67
ag23
aS'.'
aa(lp1504
g14
ag20
ag14
ag67
ag25
aS'.'
aa(lp1505
g14
ag20
ag16
ag8
ag4
aS'.'
aa(lp1506
g14
ag20
ag16
ag8
ag6
aS'.'
aa(lp1507
g14
ag20
ag16
ag8
ag23
aS'.'
aa(lp1508
g14
ag20
ag16
ag8
ag25
aS'.'
aa(lp1509
g14
ag20
ag16
ag67
ag4
aS'.'
aa(lp1510
g14
ag20
ag16
ag67
ag6
aS'.'
aa(lp1511
g14
ag20
ag16
ag67
ag23
aS'.'
aa(lp1512
g14
ag20
ag16
ag67
ag25
aS'.'
aa(lp1513
g14
ag20
ag18
ag8
ag4
aS'.'
aa(lp1514
g14
ag20
ag18
ag8
ag6
aS'.'
aa(lp1515
g14
ag20
ag18
ag8
ag23
aS'.'
aa(lp1516
g14
ag20
ag18
ag8
ag25
aS'.'
aa(lp1517
g14
ag20
ag18
ag67
ag4
aS'.'
aa(lp1518
g14
ag20
ag18
ag67
ag6
aS'.'
aa(lp1519
g14
ag20
ag18
ag67
ag23
aS'.'
aa(lp1520
g14
ag20
ag18
ag67
ag25
aS'.'
aa(lp1521
g14
ag20
ag39
ag1104
ag4
aS'.'
aa(lp1522
g14
ag20
ag39
ag1104
ag6
aS'.'
aa(lp1523
g14
ag20
ag39
ag1104
ag23
aS'.'
aa(lp1524
g14
ag20
ag39
ag1104
ag25
aS'.'
aa(lp1525
g14
ag20
ag39
ag1109
ag4
aS'.'
aa(lp1526
g14
ag20
ag39
ag1109
ag6
aS'.'
aa(lp1527
g14
ag20
ag39
ag1109
ag23
aS'.'
aa(lp1528
g14
ag20
ag39
ag1109
ag25
aS'.'
aa(lp1529
g14
ag20
ag41
ag1104
ag4
aS'.'
aa(lp1530
g14
ag20
ag41
ag1104
ag6
aS'.'
aa(lp1531
g14
ag20
ag41
ag1104
ag23
aS'.'
aa(lp1532
g14
ag20
ag41
ag1104
ag25
aS'.'
aa(lp1533
g14
ag20
ag41
ag1109
ag4
aS'.'
aa(lp1534
g14
ag20
ag41
ag1109
ag6
aS'.'
aa(lp1535
g14
ag20
ag41
ag1109
ag23
aS'.'
aa(lp1536
g14
ag20
ag41
ag1109
ag25
aS'.'
aa(lp1537
g14
ag20
ag43
ag1104
ag4
aS'.'
aa(lp1538
g14
ag20
ag43
ag1104
ag6
aS'.'
aa(lp1539
g14
ag20
ag43
ag1104
ag23
aS'.'
aa(lp1540
g14
ag20
ag43
ag1104
ag25
aS'.'
aa(lp1541
g14
ag20
ag43
ag1109
ag4
aS'.'
aa(lp1542
g14
ag20
ag43
ag1109
ag6
aS'.'
aa(lp1543
g14
ag20
ag43
ag1109
ag23
aS'.'
aa(lp1544
g14
ag20
ag43
ag1109
ag25
aS'.'
aa(lp1545
g14
ag20
ag45
ag1104
ag4
aS'.'
aa(lp1546
g14
ag20
ag45
ag1104
ag6
aS'.'
aa(lp1547
g14
ag20
ag45
ag1104
ag23
aS'.'
aa(lp1548
g14
ag20
ag45
ag1104
ag25
aS'.'
aa(lp1549
g14
ag20
ag45
ag1109
ag4
aS'.'
aa(lp1550
g14
ag20
ag45
ag1109
ag6
aS'.'
aa(lp1551
g14
ag20
ag45
ag1109
ag23
aS'.'
aa(lp1552
g14
ag20
ag45
ag1109
ag25
aS'.'
aa(lp1553
g14
ag20
ag4
ag4
aS'.'
aa(lp1554
g14
ag20
ag4
ag6
aS'.'
aa(lp1555
g14
ag20
ag4
ag8
ag3
aS'.'
aa(lp1556
g14
ag20
ag4
ag8
ag10
aS'.'
aa(lp1557
g14
ag20
ag4
ag8
ag12
aS'.'
aa(lp1558
g14
ag20
ag4
ag8
ag14
aS'.'
aa(lp1559
g14
ag20
ag4
ag8
ag16
aS'.'
aa(lp1560
g14
ag20
ag4
ag8
ag18
aS'.'
aa(lp1561
g14
ag20
ag4
ag8
ag39
aS'.'
aa(lp1562
g14
ag20
ag4
ag8
ag41
aS'.'
aa(lp1563
g14
ag20
ag4
ag8
ag43
aS'.'
aa(lp1564
g14
ag20
ag4
ag8
ag45
aS'.'
aa(lp1565
g14
ag20
ag4
ag67
ag3
aS'.'
aa(lp1566
g14
ag20
ag4
ag67
ag10
aS'.'
aa(lp1567
g14
ag20
ag4
ag67
ag12
aS'.'
aa(lp1568
g14
ag20
ag4
ag67
ag14
aS'.'
aa(lp1569
g14
ag20
ag4
ag67
ag16
aS'.'
aa(lp1570
g14
ag20
ag4
ag67
ag18
aS'.'
aa(lp1571
g14
ag20
ag4
ag67
ag39
aS'.'
aa(lp1572
g14
ag20
ag4
ag67
ag41
aS'.'
aa(lp1573
g14
ag20
ag4
ag67
ag43
aS'.'
aa(lp1574
g14
ag20
ag4
ag67
ag45
aS'.'
aa(lp1575
g14
ag20
ag4
ag23
aS'.'
aa(lp1576
g14
ag20
ag4
ag25
aS'.'
aa(lp1577
g14
ag20
ag4
ag23
ag3
aS'.'
aa(lp1578
g14
ag20
ag4
ag23
ag10
aS'.'
aa(lp1579
g14
ag20
ag4
ag23
ag12
aS'.'
aa(lp1580
g14
ag20
ag4
ag23
ag14
aS'.'
aa(lp1581
g14
ag20
ag4
ag23
ag16
aS'.'
aa(lp1582
g14
ag20
ag4
ag23
ag18
aS'.'
aa(lp1583
g14
ag20
ag4
ag23
ag39
aS'.'
aa(lp1584
g14
ag20
ag4
ag23
ag41
aS'.'
aa(lp1585
g14
ag20
ag4
ag23
ag43
aS'.'
aa(lp1586
g14
ag20
ag4
ag23
ag45
aS'.'
aa(lp1587
g14
ag20
ag4
ag25
ag3
aS'.'
aa(lp1588
g14
ag20
ag4
ag25
ag10
aS'.'
aa(lp1589
g14
ag20
ag4
ag25
ag12
aS'.'
aa(lp1590
g14
ag20
ag4
ag25
ag14
aS'.'
aa(lp1591
g14
ag20
ag4
ag25
ag16
aS'.'
aa(lp1592
g14
ag20
ag4
ag25
ag18
aS'.'
aa(lp1593
g14
ag20
ag4
ag25
ag39
aS'.'
aa(lp1594
g14
ag20
ag4
ag25
ag41
aS'.'
aa(lp1595
g14
ag20
ag4
ag25
ag43
aS'.'
aa(lp1596
g14
ag20
ag4
ag25
ag45
aS'.'
aa(lp1597
g14
ag20
ag6
ag4
aS'.'
aa(lp1598
g14
ag20
ag6
ag6
aS'.'
aa(lp1599
g14
ag20
ag6
ag8
ag3
aS'.'
aa(lp1600
g14
ag20
ag6
ag8
ag10
aS'.'
aa(lp1601
g14
ag20
ag6
ag8
ag12
aS'.'
aa(lp1602
g14
ag20
ag6
ag8
ag14
aS'.'
aa(lp1603
g14
ag20
ag6
ag8
ag16
aS'.'
aa(lp1604
g14
ag20
ag6
ag8
ag18
aS'.'
aa(lp1605
g14
ag20
ag6
ag8
ag39
aS'.'
aa(lp1606
g14
ag20
ag6
ag8
ag41
aS'.'
aa(lp1607
g14
ag20
ag6
ag8
ag43
aS'.'
aa(lp1608
g14
ag20
ag6
ag8
ag45
aS'.'
aa(lp1609
g14
ag20
ag6
ag67
ag3
aS'.'
aa(lp1610
g14
ag20
ag6
ag67
ag10
aS'.'
aa(lp1611
g14
ag20
ag6
ag67
ag12
aS'.'
aa(lp1612
g14
ag20
ag6
ag67
ag14
aS'.'
aa(lp1613
g14
ag20
ag6
ag67
ag16
aS'.'
aa(lp1614
g14
ag20
ag6
ag67
ag18
aS'.'
aa(lp1615
g14
ag20
ag6
ag67
ag39
aS'.'
aa(lp1616
g14
ag20
ag6
ag67
ag41
aS'.'
aa(lp1617
g14
ag20
ag6
ag67
ag43
aS'.'
aa(lp1618
g14
ag20
ag6
ag67
ag45
aS'.'
aa(lp1619
g14
ag20
ag6
ag23
aS'.'
aa(lp1620
g14
ag20
ag6
ag25
aS'.'
aa(lp1621
g14
ag20
ag6
ag23
ag3
aS'.'
aa(lp1622
g14
ag20
ag6
ag23
ag10
aS'.'
aa(lp1623
g14
ag20
ag6
ag23
ag12
aS'.'
aa(lp1624
g14
ag20
ag6
ag23
ag14
aS'.'
aa(lp1625
g14
ag20
ag6
ag23
ag16
aS'.'
aa(lp1626
g14
ag20
ag6
ag23
ag18
aS'.'
aa(lp1627
g14
ag20
ag6
ag23
ag39
aS'.'
aa(lp1628
g14
ag20
ag6
ag23
ag41
aS'.'
aa(lp1629
g14
ag20
ag6
ag23
ag43
aS'.'
aa(lp1630
g14
ag20
ag6
ag23
ag45
aS'.'
aa(lp1631
g14
ag20
ag6
ag25
ag3
aS'.'
aa(lp1632
g14
ag20
ag6
ag25
ag10
aS'.'
aa(lp1633
g14
ag20
ag6
ag25
ag12
aS'.'
aa(lp1634
g14
ag20
ag6
ag25
ag14
aS'.'
aa(lp1635
g14
ag20
ag6
ag25
ag16
aS'.'
aa(lp1636
g14
ag20
ag6
ag25
ag18
aS'.'
aa(lp1637
g14
ag20
ag6
ag25
ag39
aS'.'
aa(lp1638
g14
ag20
ag6
ag25
ag41
aS'.'
aa(lp1639
g14
ag20
ag6
ag25
ag43
aS'.'
aa(lp1640
g14
ag20
ag6
ag25
ag45
aS'.'
aa(lp1641
g14
ag20
ag8
ag3
ag4
aS'.'
aa(lp1642
g14
ag20
ag8
ag3
ag6
aS'.'
aa(lp1643
g14
ag20
ag8
ag3
ag23
aS'.'
aa(lp1644
g14
ag20
ag8
ag3
ag25
aS'.'
aa(lp1645
g14
ag20
ag8
ag10
ag4
aS'.'
aa(lp1646
g14
ag20
ag8
ag10
ag6
aS'.'
aa(lp1647
g14
ag20
ag8
ag10
ag23
aS'.'
aa(lp1648
g14
ag20
ag8
ag10
ag25
aS'.'
aa(lp1649
g14
ag20
ag8
ag12
ag4
aS'.'
aa(lp1650
g14
ag20
ag8
ag12
ag6
aS'.'
aa(lp1651
g14
ag20
ag8
ag12
ag23
aS'.'
aa(lp1652
g14
ag20
ag8
ag12
ag25
aS'.'
aa(lp1653
g14
ag20
ag8
ag14
ag4
aS'.'
aa(lp1654
g14
ag20
ag8
ag14
ag6
aS'.'
aa(lp1655
g14
ag20
ag8
ag14
ag23
aS'.'
aa(lp1656
g14
ag20
ag8
ag14
ag25
aS'.'
aa(lp1657
g14
ag20
ag8
ag16
ag4
aS'.'
aa(lp1658
g14
ag20
ag8
ag16
ag6
aS'.'
aa(lp1659
g14
ag20
ag8
ag16
ag23
aS'.'
aa(lp1660
g14
ag20
ag8
ag16
ag25
aS'.'
aa(lp1661
g14
ag20
ag8
ag18
ag4
aS'.'
aa(lp1662
g14
ag20
ag8
ag18
ag6
aS'.'
aa(lp1663
g14
ag20
ag8
ag18
ag23
aS'.'
aa(lp1664
g14
ag20
ag8
ag18
ag25
aS'.'
aa(lp1665
g14
ag20
ag8
ag39
ag4
aS'.'
aa(lp1666
g14
ag20
ag8
ag39
ag6
aS'.'
aa(lp1667
g14
ag20
ag8
ag39
ag23
aS'.'
aa(lp1668
g14
ag20
ag8
ag39
ag25
aS'.'
aa(lp1669
g14
ag20
ag8
ag41
ag4
aS'.'
aa(lp1670
g14
ag20
ag8
ag41
ag6
aS'.'
aa(lp1671
g14
ag20
ag8
ag41
ag23
aS'.'
aa(lp1672
g14
ag20
ag8
ag41
ag25
aS'.'
aa(lp1673
g14
ag20
ag8
ag43
ag4
aS'.'
aa(lp1674
g14
ag20
ag8
ag43
ag6
aS'.'
aa(lp1675
g14
ag20
ag8
ag43
ag23
aS'.'
aa(lp1676
g14
ag20
ag8
ag43
ag25
aS'.'
aa(lp1677
g14
ag20
ag8
ag45
ag4
aS'.'
aa(lp1678
g14
ag20
ag8
ag45
ag6
aS'.'
aa(lp1679
g14
ag20
ag8
ag45
ag23
aS'.'
aa(lp1680
g14
ag20
ag8
ag45
ag25
aS'.'
aa(lp1681
g14
ag20
ag67
ag3
ag4
aS'.'
aa(lp1682
g14
ag20
ag67
ag3
ag6
aS'.'
aa(lp1683
g14
ag20
ag67
ag3
ag23
aS'.'
aa(lp1684
g14
ag20
ag67
ag3
ag25
aS'.'
aa(lp1685
g14
ag20
ag67
ag10
ag4
aS'.'
aa(lp1686
g14
ag20
ag67
ag10
ag6
aS'.'
aa(lp1687
g14
ag20
ag67
ag10
ag23
aS'.'
aa(lp1688
g14
ag20
ag67
ag10
ag25
aS'.'
aa(lp1689
g14
ag20
ag67
ag12
ag4
aS'.'
aa(lp1690
g14
ag20
ag67
ag12
ag6
aS'.'
aa(lp1691
g14
ag20
ag67
ag12
ag23
aS'.'
aa(lp1692
g14
ag20
ag67
ag12
ag25
aS'.'
aa(lp1693
g14
ag20
ag67
ag14
ag4
aS'.'
aa(lp1694
g14
ag20
ag67
ag14
ag6
aS'.'
aa(lp1695
g14
ag20
ag67
ag14
ag23
aS'.'
aa(lp1696
g14
ag20
ag67
ag14
ag25
aS'.'
aa(lp1697
g14
ag20
ag67
ag16
ag4
aS'.'
aa(lp1698
g14
ag20
ag67
ag16
ag6
aS'.'
aa(lp1699
g14
ag20
ag67
ag16
ag23
aS'.'
aa(lp1700
g14
ag20
ag67
ag16
ag25
aS'.'
aa(lp1701
g14
ag20
ag67
ag18
ag4
aS'.'
aa(lp1702
g14
ag20
ag67
ag18
ag6
aS'.'
aa(lp1703
g14
ag20
ag67
ag18
ag23
aS'.'
aa(lp1704
g14
ag20
ag67
ag18
ag25
aS'.'
aa(lp1705
g14
ag20
ag67
ag39
ag4
aS'.'
aa(lp1706
g14
ag20
ag67
ag39
ag6
aS'.'
aa(lp1707
g14
ag20
ag67
ag39
ag23
aS'.'
aa(lp1708
g14
ag20
ag67
ag39
ag25
aS'.'
aa(lp1709
g14
ag20
ag67
ag41
ag4
aS'.'
aa(lp1710
g14
ag20
ag67
ag41
ag6
aS'.'
aa(lp1711
g14
ag20
ag67
ag41
ag23
aS'.'
aa(lp1712
g14
ag20
ag67
ag41
ag25
aS'.'
aa(lp1713
g14
ag20
ag67
ag43
ag4
aS'.'
aa(lp1714
g14
ag20
ag67
ag43
ag6
aS'.'
aa(lp1715
g14
ag20
ag67
ag43
ag23
aS'.'
aa(lp1716
g14
ag20
ag67
ag43
ag25
aS'.'
aa(lp1717
g14
ag20
ag67
ag45
ag4
aS'.'
aa(lp1718
g14
ag20
ag67
ag45
ag6
aS'.'
aa(lp1719
g14
ag20
ag67
ag45
ag23
aS'.'
aa(lp1720
g14
ag20
ag67
ag45
ag25
aS'.'
aa(lp1721
g14
ag20
ag23
ag4
aS'.'
aa(lp1722
g14
ag20
ag23
ag6
aS'.'
aa(lp1723
g14
ag20
ag23
ag8
ag3
aS'.'
aa(lp1724
g14
ag20
ag23
ag8
ag10
aS'.'
aa(lp1725
g14
ag20
ag23
ag8
ag12
aS'.'
aa(lp1726
g14
ag20
ag23
ag8
ag14
aS'.'
aa(lp1727
g14
ag20
ag23
ag8
ag16
aS'.'
aa(lp1728
g14
ag20
ag23
ag8
ag18
aS'.'
aa(lp1729
g14
ag20
ag23
ag8
ag39
aS'.'
aa(lp1730
g14
ag20
ag23
ag8
ag41
aS'.'
aa(lp1731
g14
ag20
ag23
ag8
ag43
aS'.'
aa(lp1732
g14
ag20
ag23
ag8
ag45
aS'.'
aa(lp1733
g14
ag20
ag23
ag67
ag3
aS'.'
aa(lp1734
g14
ag20
ag23
ag67
ag10
aS'.'
aa(lp1735
g14
ag20
ag23
ag67
ag12
aS'.'
aa(lp1736
g14
ag20
ag23
ag67
ag14
aS'.'
aa(lp1737
g14
ag20
ag23
ag67
ag16
aS'.'
aa(lp1738
g14
ag20
ag23
ag67
ag18
aS'.'
aa(lp1739
g14
ag20
ag23
ag67
ag39
aS'.'
aa(lp1740
g14
ag20
ag23
ag67
ag41
aS'.'
aa(lp1741
g14
ag20
ag23
ag67
ag43
aS'.'
aa(lp1742
g14
ag20
ag23
ag67
ag45
aS'.'
aa(lp1743
g14
ag20
ag23
ag23
aS'.'
aa(lp1744
g14
ag20
ag23
ag25
aS'.'
aa(lp1745
g14
ag20
ag23
ag23
ag3
aS'.'
aa(lp1746
g14
ag20
ag23
ag23
ag10
aS'.'
aa(lp1747
g14
ag20
ag23
ag23
ag12
aS'.'
aa(lp1748
g14
ag20
ag23
ag23
ag14
aS'.'
aa(lp1749
g14
ag20
ag23
ag23
ag16
aS'.'
aa(lp1750
g14
ag20
ag23
ag23
ag18
aS'.'
aa(lp1751
g14
ag20
ag23
ag23
ag39
aS'.'
aa(lp1752
g14
ag20
ag23
ag23
ag41
aS'.'
aa(lp1753
g14
ag20
ag23
ag23
ag43
aS'.'
aa(lp1754
g14
ag20
ag23
ag23
ag45
aS'.'
aa(lp1755
g14
ag20
ag23
ag25
ag3
aS'.'
aa(lp1756
g14
ag20
ag23
ag25
ag10
aS'.'
aa(lp1757
g14
ag20
ag23
ag25
ag12
aS'.'
aa(lp1758
g14
ag20
ag23
ag25
ag14
aS'.'
aa(lp1759
g14
ag20
ag23
ag25
ag16
aS'.'
aa(lp1760
g14
ag20
ag23
ag25
ag18
aS'.'
aa(lp1761
g14
ag20
ag23
ag25
ag39
aS'.'
aa(lp1762
g14
ag20
ag23
ag25
ag41
aS'.'
aa(lp1763
g14
ag20
ag23
ag25
ag43
aS'.'
aa(lp1764
g14
ag20
ag23
ag25
ag45
aS'.'
aa(lp1765
g14
ag20
ag25
ag4
aS'.'
aa(lp1766
g14
ag20
ag25
ag6
aS'.'
aa(lp1767
g14
ag20
ag25
ag8
ag3
aS'.'
aa(lp1768
g14
ag20
ag25
ag8
ag10
aS'.'
aa(lp1769
g14
ag20
ag25
ag8
ag12
aS'.'
aa(lp1770
g14
ag20
ag25
ag8
ag14
aS'.'
aa(lp1771
g14
ag20
ag25
ag8
ag16
aS'.'
aa(lp1772
g14
ag20
ag25
ag8
ag18
aS'.'
aa(lp1773
g14
ag20
ag25
ag8
ag39
aS'.'
aa(lp1774
g14
ag20
ag25
ag8
ag41
aS'.'
aa(lp1775
g14
ag20
ag25
ag8
ag43
aS'.'
aa(lp1776
g14
ag20
ag25
ag8
ag45
aS'.'
aa(lp1777
g14
ag20
ag25
ag67
ag3
aS'.'
aa(lp1778
g14
ag20
ag25
ag67
ag10
aS'.'
aa(lp1779
g14
ag20
ag25
ag67
ag12
aS'.'
aa(lp1780
g14
ag20
ag25
ag67
ag14
aS'.'
aa(lp1781
g14
ag20
ag25
ag67
ag16
aS'.'
aa(lp1782
g14
ag20
ag25
ag67
ag18
aS'.'
aa(lp1783
g14
ag20
ag25
ag67
ag39
aS'.'
aa(lp1784
g14
ag20
ag25
ag67
ag41
aS'.'
aa(lp1785
g14
ag20
ag25
ag67
ag43
aS'.'
aa(lp1786
g14
ag20
ag25
ag67
ag45
aS'.'
aa(lp1787
g14
ag20
ag25
ag23
aS'.'
aa(lp1788
g14
ag20
ag25
ag25
aS'.'
aa(lp1789
g14
ag20
ag25
ag23
ag3
aS'.'
aa(lp1790
g14
ag20
ag25
ag23
ag10
aS'.'
aa(lp1791
g14
ag20
ag25
ag23
ag12
aS'.'
aa(lp1792
g14
ag20
ag25
ag23
ag14
aS'.'
aa(lp1793
g14
ag20
ag25
ag23
ag16
aS'.'
aa(lp1794
g14
ag20
ag25
ag23
ag18
aS'.'
aa(lp1795
g14
ag20
ag25
ag23
ag39
aS'.'
aa(lp1796
g14
ag20
ag25
ag23
ag41
aS'.'
aa(lp1797
g14
ag20
ag25
ag23
ag43
aS'.'
aa(lp1798
g14
ag20
ag25
ag23
ag45
aS'.'
aa(lp1799
g14
ag20
ag25
ag25
ag3
aS'.'
aa(lp1800
g14
ag20
ag25
ag25
ag10
aS'.'
aa(lp1801
g14
ag20
ag25
ag25
ag12
aS'.'
aa(lp1802
g14
ag20
ag25
ag25
ag14
aS'.'
aa(lp1803
g14
ag20
ag25
ag25
ag16
aS'.'
aa(lp1804
g14
ag20
ag25
ag25
ag18
aS'.'
aa(lp1805
g14
ag20
ag25
ag25
ag39
aS'.'
aa(lp1806
g14
ag20
ag25
ag25
ag41
aS'.'
aa(lp1807
g14
ag20
ag25
ag25
ag43
aS'.'
aa(lp1808
g14
ag20
ag25
ag25
ag45
aS'.'
aa(lp1809
g14
ag20
ag23
ag3
ag4
aS'.'
aa(lp1810
g14
ag20
ag23
ag3
ag6
aS'.'
aa(lp1811
g14
ag20
ag23
ag3
ag23
aS'.'
aa(lp1812
g14
ag20
ag23
ag3
ag25
aS'.'
aa(lp1813
g14
ag20
ag23
ag10
ag4
aS'.'
aa(lp1814
g14
ag20
ag23
ag10
ag6
aS'.'
aa(lp1815
g14
ag20
ag23
ag10
ag23
aS'.'
aa(lp1816
g14
ag20
ag23
ag10
ag25
aS'.'
aa(lp1817
g14
ag20
ag23
ag12
ag4
aS'.'
aa(lp1818
g14
ag20
ag23
ag12
ag6
aS'.'
aa(lp1819
g14
ag20
ag23
ag12
ag23
aS'.'
aa(lp1820
g14
ag20
ag23
ag12
ag25
aS'.'
aa(lp1821
g14
ag20
ag23
ag14
ag4
aS'.'
aa(lp1822
g14
ag20
ag23
ag14
ag6
aS'.'
aa(lp1823
g14
ag20
ag23
ag14
ag23
aS'.'
aa(lp1824
g14
ag20
ag23
ag14
ag25
aS'.'
aa(lp1825
g14
ag20
ag23
ag16
ag4
aS'.'
aa(lp1826
g14
ag20
ag23
ag16
ag6
aS'.'
aa(lp1827
g14
ag20
ag23
ag16
ag23
aS'.'
aa(lp1828
g14
ag20
ag23
ag16
ag25
aS'.'
aa(lp1829
g14
ag20
ag23
ag18
ag4
aS'.'
aa(lp1830
g14
ag20
ag23
ag18
ag6
aS'.'
aa(lp1831
g14
ag20
ag23
ag18
ag23
aS'.'
aa(lp1832
g14
ag20
ag23
ag18
ag25
aS'.'
aa(lp1833
g14
ag20
ag23
ag39
ag4
aS'.'
aa(lp1834
g14
ag20
ag23
ag39
ag6
aS'.'
aa(lp1835
g14
ag20
ag23
ag39
ag23
aS'.'
aa(lp1836
g14
ag20
ag23
ag39
ag25
aS'.'
aa(lp1837
g14
ag20
ag23
ag41
ag4
aS'.'
aa(lp1838
g14
ag20
ag23
ag41
ag6
aS'.'
aa(lp1839
g14
ag20
ag23
ag41
ag23
aS'.'
aa(lp1840
g14
ag20
ag23
ag41
ag25
aS'.'
aa(lp1841
g14
ag20
ag23
ag43
ag4
aS'.'
aa(lp1842
g14
ag20
ag23
ag43
ag6
aS'.'
aa(lp1843
g14
ag20
ag23
ag43
ag23
aS'.'
aa(lp1844
g14
ag20
ag23
ag43
ag25
aS'.'
aa(lp1845
g14
ag20
ag23
ag45
ag4
aS'.'
aa(lp1846
g14
ag20
ag23
ag45
ag6
aS'.'
aa(lp1847
g14
ag20
ag23
ag45
ag23
aS'.'
aa(lp1848
g14
ag20
ag23
ag45
ag25
aS'.'
aa(lp1849
g14
ag20
ag25
ag3
ag4
aS'.'
aa(lp1850
g14
ag20
ag25
ag3
ag6
aS'.'
aa(lp1851
g14
ag20
ag25
ag3
ag23
aS'.'
aa(lp1852
g14
ag20
ag25
ag3
ag25
aS'.'
aa(lp1853
g14
ag20
ag25
ag10
ag4
aS'.'
aa(lp1854
g14
ag20
ag25
ag10
ag6
aS'.'
aa(lp1855
g14
ag20
ag25
ag10
ag23
aS'.'
aa(lp1856
g14
ag20
ag25
ag10
ag25
aS'.'
aa(lp1857
g14
ag20
ag25
ag12
ag4
aS'.'
aa(lp1858
g14
ag20
ag25
ag12
ag6
aS'.'
aa(lp1859
g14
ag20
ag25
ag12
ag23
aS'.'
aa(lp1860
g14
ag20
ag25
ag12
ag25
aS'.'
aa(lp1861
g14
ag20
ag25
ag14
ag4
aS'.'
aa(lp1862
g14
ag20
ag25
ag14
ag6
aS'.'
aa(lp1863
g14
ag20
ag25
ag14
ag23
aS'.'
aa(lp1864
g14
ag20
ag25
ag14
ag25
aS'.'
aa(lp1865
g14
ag20
ag25
ag16
ag4
aS'.'
aa(lp1866
g14
ag20
ag25
ag16
ag6
aS'.'
aa(lp1867
g14
ag20
ag25
ag16
ag23
aS'.'
aa(lp1868
g14
ag20
ag25
ag16
ag25
aS'.'
aa(lp1869
g14
ag20
ag25
ag18
ag4
aS'.'
aa(lp1870
g14
ag20
ag25
ag18
ag6
aS'.'
aa(lp1871
g14
ag20
ag25
ag18
ag23
aS'.'
aa(lp1872
g14
ag20
ag25
ag18
ag25
aS'.'
aa(lp1873
g14
ag20
ag25
ag39
ag4
aS'.'
aa(lp1874
g14
ag20
ag25
ag39
ag6
aS'.'
aa(lp1875
g14
ag20
ag25
ag39
ag23
aS'.'
aa(lp1876
g14
ag20
ag25
ag39
ag25
aS'.'
aa(lp1877
g14
ag20
ag25
ag41
ag4
aS'.'
aa(lp1878
g14
ag20
ag25
ag41
ag6
aS'.'
aa(lp1879
g14
ag20
ag25
ag41
ag23
aS'.'
aa(lp1880
g14
ag20
ag25
ag41
ag25
aS'.'
aa(lp1881
g14
ag20
ag25
ag43
ag4
aS'.'
aa(lp1882
g14
ag20
ag25
ag43
ag6
aS'.'
aa(lp1883
g14
ag20
ag25
ag43
ag23
aS'.'
aa(lp1884
g14
ag20
ag25
ag43
ag25
aS'.'
aa(lp1885
g14
ag20
ag25
ag45
ag4
aS'.'
aa(lp1886
g14
ag20
ag25
ag45
ag6
aS'.'
aa(lp1887
g14
ag20
ag25
ag45
ag23
aS'.'
aa(lp1888
g14
ag20
ag25
ag45
ag25
aS'.'
aa(lp1889
g16
ag20
ag3
ag8
ag4
aS'.'
aa(lp1890
g16
ag20
ag3
ag8
ag6
aS'.'
aa(lp1891
g16
ag20
ag3
ag8
ag23
aS'.'
aa(lp1892
g16
ag20
ag3
ag8
ag25
aS'.'
aa(lp1893
g16
ag20
ag3
ag67
ag4
aS'.'
aa(lp1894
g16
ag20
ag3
ag67
ag6
aS'.'
aa(lp1895
g16
ag20
ag3
ag67
ag23
aS'.'
aa(lp1896
g16
ag20
ag3
ag67
ag25
aS'.'
aa(lp1897
g16
ag20
ag10
ag8
ag4
aS'.'
aa(lp1898
g16
ag20
ag10
ag8
ag6
aS'.'
aa(lp1899
g16
ag20
ag10
ag8
ag23
aS'.'
aa(lp1900
g16
ag20
ag10
ag8
ag25
aS'.'
aa(lp1901
g16
ag20
ag10
ag67
ag4
aS'.'
aa(lp1902
g16
ag20
ag10
ag67
ag6
aS'.'
aa(lp1903
g16
ag20
ag10
ag67
ag23
aS'.'
aa(lp1904
g16
ag20
ag10
ag67
ag25
aS'.'
aa(lp1905
g16
ag20
ag12
ag8
ag4
aS'.'
aa(lp1906
g16
ag20
ag12
ag8
ag6
aS'.'
aa(lp1907
g16
ag20
ag12
ag8
ag23
aS'.'
aa(lp1908
g16
ag20
ag12
ag8
ag25
aS'.'
aa(lp1909
g16
ag20
ag12
ag67
ag4
aS'.'
aa(lp1910
g16
ag20
ag12
ag67
ag6
aS'.'
aa(lp1911
g16
ag20
ag12
ag67
ag23
aS'.'
aa(lp1912
g16
ag20
ag12
ag67
ag25
aS'.'
aa(lp1913
g16
ag20
ag14
ag8
ag4
aS'.'
aa(lp1914
g16
ag20
ag14
ag8
ag6
aS'.'
aa(lp1915
g16
ag20
ag14
ag8
ag23
aS'.'
aa(lp1916
g16
ag20
ag14
ag8
ag25
aS'.'
aa(lp1917
g16
ag20
ag14
ag67
ag4
aS'.'
aa(lp1918
g16
ag20
ag14
ag67
ag6
aS'.'
aa(lp1919
g16
ag20
ag14
ag67
ag23
aS'.'
aa(lp1920
g16
ag20
ag14
ag67
ag25
aS'.'
aa(lp1921
g16
ag20
ag16
ag8
ag4
aS'.'
aa(lp1922
g16
ag20
ag16
ag8
ag6
aS'.'
aa(lp1923
g16
ag20
ag16
ag8
ag23
aS'.'
aa(lp1924
g16
ag20
ag16
ag8
ag25
aS'.'
aa(lp1925
g16
ag20
ag16
ag67
ag4
aS'.'
aa(lp1926
g16
ag20
ag16
ag67
ag6
aS'.'
aa(lp1927
g16
ag20
ag16
ag67
ag23
aS'.'
aa(lp1928
g16
ag20
ag16
ag67
ag25
aS'.'
aa(lp1929
g16
ag20
ag18
ag8
ag4
aS'.'
aa(lp1930
g16
ag20
ag18
ag8
ag6
aS'.'
aa(lp1931
g16
ag20
ag18
ag8
ag23
aS'.'
aa(lp1932
g16
ag20
ag18
ag8
ag25
aS'.'
aa(lp1933
g16
ag20
ag18
ag67
ag4
aS'.'
aa(lp1934
g16
ag20
ag18
ag67
ag6
aS'.'
aa(lp1935
g16
ag20
ag18
ag67
ag23
aS'.'
aa(lp1936
g16
ag20
ag18
ag67
ag25
aS'.'
aa(lp1937
g16
ag20
ag39
ag1104
ag4
aS'.'
aa(lp1938
g16
ag20
ag39
ag1104
ag6
aS'.'
aa(lp1939
g16
ag20
ag39
ag1104
ag23
aS'.'
aa(lp1940
g16
ag20
ag39
ag1104
ag25
aS'.'
aa(lp1941
g16
ag20
ag39
ag1109
ag4
aS'.'
aa(lp1942
g16
ag20
ag39
ag1109
ag6
aS'.'
aa(lp1943
g16
ag20
ag39
ag1109
ag23
aS'.'
aa(lp1944
g16
ag20
ag39
ag1109
ag25
aS'.'
aa(lp1945
g16
ag20
ag41
ag1104
ag4
aS'.'
aa(lp1946
g16
ag20
ag41
ag1104
ag6
aS'.'
aa(lp1947
g16
ag20
ag41
ag1104
ag23
aS'.'
aa(lp1948
g16
ag20
ag41
ag1104
ag25
aS'.'
aa(lp1949
g16
ag20
ag41
ag1109
ag4
aS'.'
aa(lp1950
g16
ag20
ag41
ag1109
ag6
aS'.'
aa(lp1951
g16
ag20
ag41
ag1109
ag23
aS'.'
aa(lp1952
g16
ag20
ag41
ag1109
ag25
aS'.'
aa(lp1953
g16
ag20
ag43
ag1104
ag4
aS'.'
aa(lp1954
g16
ag20
ag43
ag1104
ag6
aS'.'
aa(lp1955
g16
ag20
ag43
ag1104
ag23
aS'.'
aa(lp1956
g16
ag20
ag43
ag1104
ag25
aS'.'
aa(lp1957
g16
ag20
ag43
ag1109
ag4
aS'.'
aa(lp1958
g16
ag20
ag43
ag1109
ag6
aS'.'
aa(lp1959
g16
ag20
ag43
ag1109
ag23
aS'.'
aa(lp1960
g16
ag20
ag43
ag1109
ag25
aS'.'
aa(lp1961
g16
ag20
ag45
ag1104
ag4
aS'.'
aa(lp1962
g16
ag20
ag45
ag1104
ag6
aS'.'
aa(lp1963
g16
ag20
ag45
ag1104
ag23
aS'.'
aa(lp1964
g16
ag20
ag45
ag1104
ag25
aS'.'
aa(lp1965
g16
ag20
ag45
ag1109
ag4
aS'.'
aa(lp1966
g16
ag20
ag45
ag1109
ag6
aS'.'
aa(lp1967
g16
ag20
ag45
ag1109
ag23
aS'.'
aa(lp1968
g16
ag20
ag45
ag1109
ag25
aS'.'
aa(lp1969
g16
ag20
ag4
ag4
aS'.'
aa(lp1970
g16
ag20
ag4
ag6
aS'.'
aa(lp1971
g16
ag20
ag4
ag8
ag3
aS'.'
aa(lp1972
g16
ag20
ag4
ag8
ag10
aS'.'
aa(lp1973
g16
ag20
ag4
ag8
ag12
aS'.'
aa(lp1974
g16
ag20
ag4
ag8
ag14
aS'.'
aa(lp1975
g16
ag20
ag4
ag8
ag16
aS'.'
aa(lp1976
g16
ag20
ag4
ag8
ag18
aS'.'
aa(lp1977
g16
ag20
ag4
ag8
ag39
aS'.'
aa(lp1978
g16
ag20
ag4
ag8
ag41
aS'.'
aa(lp1979
g16
ag20
ag4
ag8
ag43
aS'.'
aa(lp1980
g16
ag20
ag4
ag8
ag45
aS'.'
aa(lp1981
g16
ag20
ag4
ag67
ag3
aS'.'
aa(lp1982
g16
ag20
ag4
ag67
ag10
aS'.'
aa(lp1983
g16
ag20
ag4
ag67
ag12
aS'.'
aa(lp1984
g16
ag20
ag4
ag67
ag14
aS'.'
aa(lp1985
g16
ag20
ag4
ag67
ag16
aS'.'
aa(lp1986
g16
ag20
ag4
ag67
ag18
aS'.'
aa(lp1987
g16
ag20
ag4
ag67
ag39
aS'.'
aa(lp1988
g16
ag20
ag4
ag67
ag41
aS'.'
aa(lp1989
g16
ag20
ag4
ag67
ag43
aS'.'
aa(lp1990
g16
ag20
ag4
ag67
ag45
aS'.'
aa(lp1991
g16
ag20
ag4
ag23
aS'.'
aa(lp1992
g16
ag20
ag4
ag25
aS'.'
aa(lp1993
g16
ag20
ag4
ag23
ag3
aS'.'
aa(lp1994
g16
ag20
ag4
ag23
ag10
aS'.'
aa(lp1995
g16
ag20
ag4
ag23
ag12
aS'.'
aa(lp1996
g16
ag20
ag4
ag23
ag14
aS'.'
aa(lp1997
g16
ag20
ag4
ag23
ag16
aS'.'
aa(lp1998
g16
ag20
ag4
ag23
ag18
aS'.'
aa(lp1999
g16
ag20
ag4
ag23
ag39
aS'.'
aa(lp2000
g16
ag20
ag4
ag23
ag41
aS'.'
aa(lp2001
g16
ag20
ag4
ag23
ag43
aS'.'
aa(lp2002
g16
ag20
ag4
ag23
ag45
aS'.'
aa(lp2003
g16
ag20
ag4
ag25
ag3
aS'.'
aa(lp2004
g16
ag20
ag4
ag25
ag10
aS'.'
aa(lp2005
g16
ag20
ag4
ag25
ag12
aS'.'
aa(lp2006
g16
ag20
ag4
ag25
ag14
aS'.'
aa(lp2007
g16
ag20
ag4
ag25
ag16
aS'.'
aa(lp2008
g16
ag20
ag4
ag25
ag18
aS'.'
aa(lp2009
g16
ag20
ag4
ag25
ag39
aS'.'
aa(lp2010
g16
ag20
ag4
ag25
ag41
aS'.'
aa(lp2011
g16
ag20
ag4
ag25
ag43
aS'.'
aa(lp2012
g16
ag20
ag4
ag25
ag45
aS'.'
aa(lp2013
g16
ag20
ag6
ag4
aS'.'
aa(lp2014
g16
ag20
ag6
ag6
aS'.'
aa(lp2015
g16
ag20
ag6
ag8
ag3
aS'.'
aa(lp2016
g16
ag20
ag6
ag8
ag10
aS'.'
aa(lp2017
g16
ag20
ag6
ag8
ag12
aS'.'
aa(lp2018
g16
ag20
ag6
ag8
ag14
aS'.'
aa(lp2019
g16
ag20
ag6
ag8
ag16
aS'.'
aa(lp2020
g16
ag20
ag6
ag8
ag18
aS'.'
aa(lp2021
g16
ag20
ag6
ag8
ag39
aS'.'
aa(lp2022
g16
ag20
ag6
ag8
ag41
aS'.'
aa(lp2023
g16
ag20
ag6
ag8
ag43
aS'.'
aa(lp2024
g16
ag20
ag6
ag8
ag45
aS'.'
aa(lp2025
g16
ag20
ag6
ag67
ag3
aS'.'
aa(lp2026
g16
ag20
ag6
ag67
ag10
aS'.'
aa(lp2027
g16
ag20
ag6
ag67
ag12
aS'.'
aa(lp2028
g16
ag20
ag6
ag67
ag14
aS'.'
aa(lp2029
g16
ag20
ag6
ag67
ag16
aS'.'
aa(lp2030
g16
ag20
ag6
ag67
ag18
aS'.'
aa(lp2031
g16
ag20
ag6
ag67
ag39
aS'.'
aa(lp2032
g16
ag20
ag6
ag67
ag41
aS'.'
aa(lp2033
g16
ag20
ag6
ag67
ag43
aS'.'
aa(lp2034
g16
ag20
ag6
ag67
ag45
aS'.'
aa(lp2035
g16
ag20
ag6
ag23
aS'.'
aa(lp2036
g16
ag20
ag6
ag25
aS'.'
aa(lp2037
g16
ag20
ag6
ag23
ag3
aS'.'
aa(lp2038
g16
ag20
ag6
ag23
ag10
aS'.'
aa(lp2039
g16
ag20
ag6
ag23
ag12
aS'.'
aa(lp2040
g16
ag20
ag6
ag23
ag14
aS'.'
aa(lp2041
g16
ag20
ag6
ag23
ag16
aS'.'
aa(lp2042
g16
ag20
ag6
ag23
ag18
aS'.'
aa(lp2043
g16
ag20
ag6
ag23
ag39
aS'.'
aa(lp2044
g16
ag20
ag6
ag23
ag41
aS'.'
aa(lp2045
g16
ag20
ag6
ag23
ag43
aS'.'
aa(lp2046
g16
ag20
ag6
ag23
ag45
aS'.'
aa(lp2047
g16
ag20
ag6
ag25
ag3
aS'.'
aa(lp2048
g16
ag20
ag6
ag25
ag10
aS'.'
aa(lp2049
g16
ag20
ag6
ag25
ag12
aS'.'
aa(lp2050
g16
ag20
ag6
ag25
ag14
aS'.'
aa(lp2051
g16
ag20
ag6
ag25
ag16
aS'.'
aa(lp2052
g16
ag20
ag6
ag25
ag18
aS'.'
aa(lp2053
g16
ag20
ag6
ag25
ag39
aS'.'
aa(lp2054
g16
ag20
ag6
ag25
ag41
aS'.'
aa(lp2055
g16
ag20
ag6
ag25
ag43
aS'.'
aa(lp2056
g16
ag20
ag6
ag25
ag45
aS'.'
aa(lp2057
g16
ag20
ag8
ag3
ag4
aS'.'
aa(lp2058
g16
ag20
ag8
ag3
ag6
aS'.'
aa(lp2059
g16
ag20
ag8
ag3
ag23
aS'.'
aa(lp2060
g16
ag20
ag8
ag3
ag25
aS'.'
aa(lp2061
g16
ag20
ag8
ag10
ag4
aS'.'
aa(lp2062
g16
ag20
ag8
ag10
ag6
aS'.'
aa(lp2063
g16
ag20
ag8
ag10
ag23
aS'.'
aa(lp2064
g16
ag20
ag8
ag10
ag25
aS'.'
aa(lp2065
g16
ag20
ag8
ag12
ag4
aS'.'
aa(lp2066
g16
ag20
ag8
ag12
ag6
aS'.'
aa(lp2067
g16
ag20
ag8
ag12
ag23
aS'.'
aa(lp2068
g16
ag20
ag8
ag12
ag25
aS'.'
aa(lp2069
g16
ag20
ag8
ag14
ag4
aS'.'
aa(lp2070
g16
ag20
ag8
ag14
ag6
aS'.'
aa(lp2071
g16
ag20
ag8
ag14
ag23
aS'.'
aa(lp2072
g16
ag20
ag8
ag14
ag25
aS'.'
aa(lp2073
g16
ag20
ag8
ag16
ag4
aS'.'
aa(lp2074
g16
ag20
ag8
ag16
ag6
aS'.'
aa(lp2075
g16
ag20
ag8
ag16
ag23
aS'.'
aa(lp2076
g16
ag20
ag8
ag16
ag25
aS'.'
aa(lp2077
g16
ag20
ag8
ag18
ag4
aS'.'
aa(lp2078
g16
ag20
ag8
ag18
ag6
aS'.'
aa(lp2079
g16
ag20
ag8
ag18
ag23
aS'.'
aa(lp2080
g16
ag20
ag8
ag18
ag25
aS'.'
aa(lp2081
g16
ag20
ag8
ag39
ag4
aS'.'
aa(lp2082
g16
ag20
ag8
ag39
ag6
aS'.'
aa(lp2083
g16
ag20
ag8
ag39
ag23
aS'.'
aa(lp2084
g16
ag20
ag8
ag39
ag25
aS'.'
aa(lp2085
g16
ag20
ag8
ag41
ag4
aS'.'
aa(lp2086
g16
ag20
ag8
ag41
ag6
aS'.'
aa(lp2087
g16
ag20
ag8
ag41
ag23
aS'.'
aa(lp2088
g16
ag20
ag8
ag41
ag25
aS'.'
aa(lp2089
g16
ag20
ag8
ag43
ag4
aS'.'
aa(lp2090
g16
ag20
ag8
ag43
ag6
aS'.'
aa(lp2091
g16
ag20
ag8
ag43
ag23
aS'.'
aa(lp2092
g16
ag20
ag8
ag43
ag25
aS'.'
aa(lp2093
g16
ag20
ag8
ag45
ag4
aS'.'
aa(lp2094
g16
ag20
ag8
ag45
ag6
aS'.'
aa(lp2095
g16
ag20
ag8
ag45
ag23
aS'.'
aa(lp2096
g16
ag20
ag8
ag45
ag25
aS'.'
aa(lp2097
g16
ag20
ag67
ag3
ag4
aS'.'
aa(lp2098
g16
ag20
ag67
ag3
ag6
aS'.'
aa(lp2099
g16
ag20
ag67
ag3
ag23
aS'.'
aa(lp2100
g16
ag20
ag67
ag3
ag25
aS'.'
aa(lp2101
g16
ag20
ag67
ag10
ag4
aS'.'
aa(lp2102
g16
ag20
ag67
ag10
ag6
aS'.'
aa(lp2103
g16
ag20
ag67
ag10
ag23
aS'.'
aa(lp2104
g16
ag20
ag67
ag10
ag25
aS'.'
aa(lp2105
g16
ag20
ag67
ag12
ag4
aS'.'
aa(lp2106
g16
ag20
ag67
ag12
ag6
aS'.'
aa(lp2107
g16
ag20
ag67
ag12
ag23
aS'.'
aa(lp2108
g16
ag20
ag67
ag12
ag25
aS'.'
aa(lp2109
g16
ag20
ag67
ag14
ag4
aS'.'
aa(lp2110
g16
ag20
ag67
ag14
ag6
aS'.'
aa(lp2111
g16
ag20
ag67
ag14
ag23
aS'.'
aa(lp2112
g16
ag20
ag67
ag14
ag25
aS'.'
aa(lp2113
g16
ag20
ag67
ag16
ag4
aS'.'
aa(lp2114
g16
ag20
ag67
ag16
ag6
aS'.'
aa(lp2115
g16
ag20
ag67
ag16
ag23
aS'.'
aa(lp2116
g16
ag20
ag67
ag16
ag25
aS'.'
aa(lp2117
g16
ag20
ag67
ag18
ag4
aS'.'
aa(lp2118
g16
ag20
ag67
ag18
ag6
aS'.'
aa(lp2119
g16
ag20
ag67
ag18
ag23
aS'.'
aa(lp2120
g16
ag20
ag67
ag18
ag25
aS'.'
aa(lp2121
g16
ag20
ag67
ag39
ag4
aS'.'
aa(lp2122
g16
ag20
ag67
ag39
ag6
aS'.'
aa(lp2123
g16
ag20
ag67
ag39
ag23
aS'.'
aa(lp2124
g16
ag20
ag67
ag39
ag25
aS'.'
aa(lp2125
g16
ag20
ag67
ag41
ag4
aS'.'
aa(lp2126
g16
ag20
ag67
ag41
ag6
aS'.'
aa(lp2127
g16
ag20
ag67
ag41
ag23
aS'.'
aa(lp2128
g16
ag20
ag67
ag41
ag25
aS'.'
aa(lp2129
g16
ag20
ag67
ag43
ag4
aS'.'
aa(lp2130
g16
ag20
ag67
ag43
ag6
aS'.'
aa(lp2131
g16
ag20
ag67
ag43
ag23
aS'.'
aa(lp2132
g16
ag20
ag67
ag43
ag25
aS'.'
aa(lp2133
g16
ag20
ag67
ag45
ag4
aS'.'
aa(lp2134
g16
ag20
ag67
ag45
ag6
aS'.'
aa(lp2135
g16
ag20
ag67
ag45
ag23
aS'.'
aa(lp2136
g16
ag20
ag67
ag45
ag25
aS'.'
aa(lp2137
g16
ag20
ag23
ag4
aS'.'
aa(lp2138
g16
ag20
ag23
ag6
aS'.'
aa(lp2139
g16
ag20
ag23
ag8
ag3
aS'.'
aa(lp2140
g16
ag20
ag23
ag8
ag10
aS'.'
aa(lp2141
g16
ag20
ag23
ag8
ag12
aS'.'
aa(lp2142
g16
ag20
ag23
ag8
ag14
aS'.'
aa(lp2143
g16
ag20
ag23
ag8
ag16
aS'.'
aa(lp2144
g16
ag20
ag23
ag8
ag18
aS'.'
aa(lp2145
g16
ag20
ag23
ag8
ag39
aS'.'
aa(lp2146
g16
ag20
ag23
ag8
ag41
aS'.'
aa(lp2147
g16
ag20
ag23
ag8
ag43
aS'.'
aa(lp2148
g16
ag20
ag23
ag8
ag45
aS'.'
aa(lp2149
g16
ag20
ag23
ag67
ag3
aS'.'
aa(lp2150
g16
ag20
ag23
ag67
ag10
aS'.'
aa(lp2151
g16
ag20
ag23
ag67
ag12
aS'.'
aa(lp2152
g16
ag20
ag23
ag67
ag14
aS'.'
aa(lp2153
g16
ag20
ag23
ag67
ag16
aS'.'
aa(lp2154
g16
ag20
ag23
ag67
ag18
aS'.'
aa(lp2155
g16
ag20
ag23
ag67
ag39
aS'.'
aa(lp2156
g16
ag20
ag23
ag67
ag41
aS'.'
aa(lp2157
g16
ag20
ag23
ag67
ag43
aS'.'
aa(lp2158
g16
ag20
ag23
ag67
ag45
aS'.'
aa(lp2159
g16
ag20
ag23
ag23
aS'.'
aa(lp2160
g16
ag20
ag23
ag25
aS'.'
aa(lp2161
g16
ag20
ag23
ag23
ag3
aS'.'
aa(lp2162
g16
ag20
ag23
ag23
ag10
aS'.'
aa(lp2163
g16
ag20
ag23
ag23
ag12
aS'.'
aa(lp2164
g16
ag20
ag23
ag23
ag14
aS'.'
aa(lp2165
g16
ag20
ag23
ag23
ag16
aS'.'
aa(lp2166
g16
ag20
ag23
ag23
ag18
aS'.'
aa(lp2167
g16
ag20
ag23
ag23
ag39
aS'.'
aa(lp2168
g16
ag20
ag23
ag23
ag41
aS'.'
aa(lp2169
g16
ag20
ag23
ag23
ag43
aS'.'
aa(lp2170
g16
ag20
ag23
ag23
ag45
aS'.'
aa(lp2171
g16
ag20
ag23
ag25
ag3
aS'.'
aa(lp2172
g16
ag20
ag23
ag25
ag10
aS'.'
aa(lp2173
g16
ag20
ag23
ag25
ag12
aS'.'
aa(lp2174
g16
ag20
ag23
ag25
ag14
aS'.'
aa(lp2175
g16
ag20
ag23
ag25
ag16
aS'.'
aa(lp2176
g16
ag20
ag23
ag25
ag18
aS'.'
aa(lp2177
g16
ag20
ag23
ag25
ag39
aS'.'
aa(lp2178
g16
ag20
ag23
ag25
ag41
aS'.'
aa(lp2179
g16
ag20
ag23
ag25
ag43
aS'.'
aa(lp2180
g16
ag20
ag23
ag25
ag45
aS'.'
aa(lp2181
g16
ag20
ag25
ag4
aS'.'
aa(lp2182
g16
ag20
ag25
ag6
aS'.'
aa(lp2183
g16
ag20
ag25
ag8
ag3
aS'.'
aa(lp2184
g16
ag20
ag25
ag8
ag10
aS'.'
aa(lp2185
g16
ag20
ag25
ag8
ag12
aS'.'
aa(lp2186
g16
ag20
ag25
ag8
ag14
aS'.'
aa(lp2187
g16
ag20
ag25
ag8
ag16
aS'.'
aa(lp2188
g16
ag20
ag25
ag8
ag18
aS'.'
aa(lp2189
g16
ag20
ag25
ag8
ag39
aS'.'
aa(lp2190
g16
ag20
ag25
ag8
ag41
aS'.'
aa(lp2191
g16
ag20
ag25
ag8
ag43
aS'.'
aa(lp2192
g16
ag20
ag25
ag8
ag45
aS'.'
aa(lp2193
g16
ag20
ag25
ag67
ag3
aS'.'
aa(lp2194
g16
ag20
ag25
ag67
ag10
aS'.'
aa(lp2195
g16
ag20
ag25
ag67
ag12
aS'.'
aa(lp2196
g16
ag20
ag25
ag67
ag14
aS'.'
aa(lp2197
g16
ag20
ag25
ag67
ag16
aS'.'
aa(lp2198
g16
ag20
ag25
ag67
ag18
aS'.'
aa(lp2199
g16
ag20
ag25
ag67
ag39
aS'.'
aa(lp2200
g16
ag20
ag25
ag67
ag41
aS'.'
aa(lp2201
g16
ag20
ag25
ag67
ag43
aS'.'
aa(lp2202
g16
ag20
ag25
ag67
ag45
aS'.'
aa(lp2203
g16
ag20
ag25
ag23
aS'.'
aa(lp2204
g16
ag20
ag25
ag25
aS'.'
aa(lp2205
g16
ag20
ag25
ag23
ag3
aS'.'
aa(lp2206
g16
ag20
ag25
ag23
ag10
aS'.'
aa(lp2207
g16
ag20
ag25
ag23
ag12
aS'.'
aa(lp2208
g16
ag20
ag25
ag23
ag14
aS'.'
aa(lp2209
g16
ag20
ag25
ag23
ag16
aS'.'
aa(lp2210
g16
ag20
ag25
ag23
ag18
aS'.'
aa(lp2211
g16
ag20
ag25
ag23
ag39
aS'.'
aa(lp2212
g16
ag20
ag25
ag23
ag41
aS'.'
aa(lp2213
g16
ag20
ag25
ag23
ag43
aS'.'
aa(lp2214
g16
ag20
ag25
ag23
ag45
aS'.'
aa(lp2215
g16
ag20
ag25
ag25
ag3
aS'.'
aa(lp2216
g16
ag20
ag25
ag25
ag10
aS'.'
aa(lp2217
g16
ag20
ag25
ag25
ag12
aS'.'
aa(lp2218
g16
ag20
ag25
ag25
ag14
aS'.'
aa(lp2219
g16
ag20
ag25
ag25
ag16
aS'.'
aa(lp2220
g16
ag20
ag25
ag25
ag18
aS'.'
aa(lp2221
g16
ag20
ag25
ag25
ag39
aS'.'
aa(lp2222
g16
ag20
ag25
ag25
ag41
aS'.'
aa(lp2223
g16
ag20
ag25
ag25
ag43
aS'.'
aa(lp2224
g16
ag20
ag25
ag25
ag45
aS'.'
aa(lp2225
g16
ag20
ag23
ag3
ag4
aS'.'
aa(lp2226
g16
ag20
ag23
ag3
ag6
aS'.'
aa(lp2227
g16
ag20
ag23
ag3
ag23
aS'.'
aa(lp2228
g16
ag20
ag23
ag3
ag25
aS'.'
aa(lp2229
g16
ag20
ag23
ag10
ag4
aS'.'
aa(lp2230
g16
ag20
ag23
ag10
ag6
aS'.'
aa(lp2231
g16
ag20
ag23
ag10
ag23
aS'.'
aa(lp2232
g16
ag20
ag23
ag10
ag25
aS'.'
aa(lp2233
g16
ag20
ag23
ag12
ag4
aS'.'
aa(lp2234
g16
ag20
ag23
ag12
ag6
aS'.'
aa(lp2235
g16
ag20
ag23
ag12
ag23
aS'.'
aa(lp2236
g16
ag20
ag23
ag12
ag25
aS'.'
aa(lp2237
g16
ag20
ag23
ag14
ag4
aS'.'
aa(lp2238
g16
ag20
ag23
ag14
ag6
aS'.'
aa(lp2239
g16
ag20
ag23
ag14
ag23
aS'.'
aa(lp2240
g16
ag20
ag23
ag14
ag25
aS'.'
aa(lp2241
g16
ag20
ag23
ag16
ag4
aS'.'
aa(lp2242
g16
ag20
ag23
ag16
ag6
aS'.'
aa(lp2243
g16
ag20
ag23
ag16
ag23
aS'.'
aa(lp2244
g16
ag20
ag23
ag16
ag25
aS'.'
aa(lp2245
g16
ag20
ag23
ag18
ag4
aS'.'
aa(lp2246
g16
ag20
ag23
ag18
ag6
aS'.'
aa(lp2247
g16
ag20
ag23
ag18
ag23
aS'.'
aa(lp2248
g16
ag20
ag23
ag18
ag25
aS'.'
aa(lp2249
g16
ag20
ag23
ag39
ag4
aS'.'
aa(lp2250
g16
ag20
ag23
ag39
ag6
aS'.'
aa(lp2251
g16
ag20
ag23
ag39
ag23
aS'.'
aa(lp2252
g16
ag20
ag23
ag39
ag25
aS'.'
aa(lp2253
g16
ag20
ag23
ag41
ag4
aS'.'
aa(lp2254
g16
ag20
ag23
ag41
ag6
aS'.'
aa(lp2255
g16
ag20
ag23
ag41
ag23
aS'.'
aa(lp2256
g16
ag20
ag23
ag41
ag25
aS'.'
aa(lp2257
g16
ag20
ag23
ag43
ag4
aS'.'
aa(lp2258
g16
ag20
ag23
ag43
ag6
aS'.'
aa(lp2259
g16
ag20
ag23
ag43
ag23
aS'.'
aa(lp2260
g16
ag20
ag23
ag43
ag25
aS'.'
aa(lp2261
g16
ag20
ag23
ag45
ag4
aS'.'
aa(lp2262
g16
ag20
ag23
ag45
ag6
aS'.'
aa(lp2263
g16
ag20
ag23
ag45
ag23
aS'.'
aa(lp2264
g16
ag20
ag23
ag45
ag25
aS'.'
aa(lp2265
g16
ag20
ag25
ag3
ag4
aS'.'
aa(lp2266
g16
ag20
ag25
ag3
ag6
aS'.'
aa(lp2267
g16
ag20
ag25
ag3
ag23
aS'.'
aa(lp2268
g16
ag20
ag25
ag3
ag25
aS'.'
aa(lp2269
g16
ag20
ag25
ag10
ag4
aS'.'
aa(lp2270
g16
ag20
ag25
ag10
ag6
aS'.'
aa(lp2271
g16
ag20
ag25
ag10
ag23
aS'.'
aa(lp2272
g16
ag20
ag25
ag10
ag25
aS'.'
aa(lp2273
g16
ag20
ag25
ag12
ag4
aS'.'
aa(lp2274
g16
ag20
ag25
ag12
ag6
aS'.'
aa(lp2275
g16
ag20
ag25
ag12
ag23
aS'.'
aa(lp2276
g16
ag20
ag25
ag12
ag25
aS'.'
aa(lp2277
g16
ag20
ag25
ag14
ag4
aS'.'
aa(lp2278
g16
ag20
ag25
ag14
ag6
aS'.'
aa(lp2279
g16
ag20
ag25
ag14
ag23
aS'.'
aa(lp2280
g16
ag20
ag25
ag14
ag25
aS'.'
aa(lp2281
g16
ag20
ag25
ag16
ag4
aS'.'
aa(lp2282
g16
ag20
ag25
ag16
ag6
aS'.'
aa(lp2283
g16
ag20
ag25
ag16
ag23
aS'.'
aa(lp2284
g16
ag20
ag25
ag16
ag25
aS'.'
aa(lp2285
g16
ag20
ag25
ag18
ag4
aS'.'
aa(lp2286
g16
ag20
ag25
ag18
ag6
aS'.'
aa(lp2287
g16
ag20
ag25
ag18
ag23
aS'.'
aa(lp2288
g16
ag20
ag25
ag18
ag25
aS'.'
aa(lp2289
g16
ag20
ag25
ag39
ag4
aS'.'
aa(lp2290
g16
ag20
ag25
ag39
ag6
aS'.'
aa(lp2291
g16
ag20
ag25
ag39
ag23
aS'.'
aa(lp2292
g16
ag20
ag25
ag39
ag25
aS'.'
aa(lp2293
g16
ag20
ag25
ag41
ag4
aS'.'
aa(lp2294
g16
ag20
ag25
ag41
ag6
aS'.'
aa(lp2295
g16
ag20
ag25
ag41
ag23
aS'.'
aa(lp2296
g16
ag20
ag25
ag41
ag25
aS'.'
aa(lp2297
g16
ag20
ag25
ag43
ag4
aS'.'
aa(lp2298
g16
ag20
ag25
ag43
ag6
aS'.'
aa(lp2299
g16
ag20
ag25
ag43
ag23
aS'.'
aa(lp2300
g16
ag20
ag25
ag43
ag25
aS'.'
aa(lp2301
g16
ag20
ag25
ag45
ag4
aS'.'
aa(lp2302
g16
ag20
ag25
ag45
ag6
aS'.'
aa(lp2303
g16
ag20
ag25
ag45
ag23
aS'.'
aa(lp2304
g16
ag20
ag25
ag45
ag25
aS'.'
aa(lp2305
g18
ag20
ag3
ag8
ag4
aS'.'
aa(lp2306
g18
ag20
ag3
ag8
ag6
aS'.'
aa(lp2307
g18
ag20
ag3
ag8
ag23
aS'.'
aa(lp2308
g18
ag20
ag3
ag8
ag25
aS'.'
aa(lp2309
g18
ag20
ag3
ag67
ag4
aS'.'
aa(lp2310
g18
ag20
ag3
ag67
ag6
aS'.'
aa(lp2311
g18
ag20
ag3
ag67
ag23
aS'.'
aa(lp2312
g18
ag20
ag3
ag67
ag25
aS'.'
aa(lp2313
g18
ag20
ag10
ag8
ag4
aS'.'
aa(lp2314
g18
ag20
ag10
ag8
ag6
aS'.'
aa(lp2315
g18
ag20
ag10
ag8
ag23
aS'.'
aa(lp2316
g18
ag20
ag10
ag8
ag25
aS'.'
aa(lp2317
g18
ag20
ag10
ag67
ag4
aS'.'
aa(lp2318
g18
ag20
ag10
ag67
ag6
aS'.'
aa(lp2319
g18
ag20
ag10
ag67
ag23
aS'.'
aa(lp2320
g18
ag20
ag10
ag67
ag25
aS'.'
aa(lp2321
g18
ag20
ag12
ag8
ag4
aS'.'
aa(lp2322
g18
ag20
ag12
ag8
ag6
aS'.'
aa(lp2323
g18
ag20
ag12
ag8
ag23
aS'.'
aa(lp2324
g18
ag20
ag12
ag8
ag25
aS'.'
aa(lp2325
g18
ag20
ag12
ag67
ag4
aS'.'
aa(lp2326
g18
ag20
ag12
ag67
ag6
aS'.'
aa(lp2327
g18
ag20
ag12
ag67
ag23
aS'.'
aa(lp2328
g18
ag20
ag12
ag67
ag25
aS'.'
aa(lp2329
g18
ag20
ag14
ag8
ag4
aS'.'
aa(lp2330
g18
ag20
ag14
ag8
ag6
aS'.'
aa(lp2331
g18
ag20
ag14
ag8
ag23
aS'.'
aa(lp2332
g18
ag20
ag14
ag8
ag25
aS'.'
aa(lp2333
g18
ag20
ag14
ag67
ag4
aS'.'
aa(lp2334
g18
ag20
ag14
ag67
ag6
aS'.'
aa(lp2335
g18
ag20
ag14
ag67
ag23
aS'.'
aa(lp2336
g18
ag20
ag14
ag67
ag25
aS'.'
aa(lp2337
g18
ag20
ag16
ag8
ag4
aS'.'
aa(lp2338
g18
ag20
ag16
ag8
ag6
aS'.'
aa(lp2339
g18
ag20
ag16
ag8
ag23
aS'.'
aa(lp2340
g18
ag20
ag16
ag8
ag25
aS'.'
aa(lp2341
g18
ag20
ag16
ag67
ag4
aS'.'
aa(lp2342
g18
ag20
ag16
ag67
ag6
aS'.'
aa(lp2343
g18
ag20
ag16
ag67
ag23
aS'.'
aa(lp2344
g18
ag20
ag16
ag67
ag25
aS'.'
aa(lp2345
g18
ag20
ag18
ag8
ag4
aS'.'
aa(lp2346
g18
ag20
ag18
ag8
ag6
aS'.'
aa(lp2347
g18
ag20
ag18
ag8
ag23
aS'.'
aa(lp2348
g18
ag20
ag18
ag8
ag25
aS'.'
aa(lp2349
g18
ag20
ag18
ag67
ag4
aS'.'
aa(lp2350
g18
ag20
ag18
ag67
ag6
aS'.'
aa(lp2351
g18
ag20
ag18
ag67
ag23
aS'.'
aa(lp2352
g18
ag20
ag18
ag67
ag25
aS'.'
aa(lp2353
g18
ag20
ag39
ag1104
ag4
aS'.'
aa(lp2354
g18
ag20
ag39
ag1104
ag6
aS'.'
aa(lp2355
g18
ag20
ag39
ag1104
ag23
aS'.'
aa(lp2356
g18
ag20
ag39
ag1104
ag25
aS'.'
aa(lp2357
g18
ag20
ag39
ag1109
ag4
aS'.'
aa(lp2358
g18
ag20
ag39
ag1109
ag6
aS'.'
aa(lp2359
g18
ag20
ag39
ag1109
ag23
aS'.'
aa(lp2360
g18
ag20
ag39
ag1109
ag25
aS'.'
aa(lp2361
g18
ag20
ag41
ag1104
ag4
aS'.'
aa(lp2362
g18
ag20
ag41
ag1104
ag6
aS'.'
aa(lp2363
g18
ag20
ag41
ag1104
ag23
aS'.'
aa(lp2364
g18
ag20
ag41
ag1104
ag25
aS'.'
aa(lp2365
g18
ag20
ag41
ag1109
ag4
aS'.'
aa(lp2366
g18
ag20
ag41
ag1109
ag6
aS'.'
aa(lp2367
g18
ag20
ag41
ag1109
ag23
aS'.'
aa(lp2368
g18
ag20
ag41
ag1109
ag25
aS'.'
aa(lp2369
g18
ag20
ag43
ag1104
ag4
aS'.'
aa(lp2370
g18
ag20
ag43
ag1104
ag6
aS'.'
aa(lp2371
g18
ag20
ag43
ag1104
ag23
aS'.'
aa(lp2372
g18
ag20
ag43
ag1104
ag25
aS'.'
aa(lp2373
g18
ag20
ag43
ag1109
ag4
aS'.'
aa(lp2374
g18
ag20
ag43
ag1109
ag6
aS'.'
aa(lp2375
g18
ag20
ag43
ag1109
ag23
aS'.'
aa(lp2376
g18
ag20
ag43
ag1109
ag25
aS'.'
aa(lp2377
g18
ag20
ag45
ag1104
ag4
aS'.'
aa(lp2378
g18
ag20
ag45
ag1104
ag6
aS'.'
aa(lp2379
g18
ag20
ag45
ag1104
ag23
aS'.'
aa(lp2380
g18
ag20
ag45
ag1104
ag25
aS'.'
aa(lp2381
g18
ag20
ag45
ag1109
ag4
aS'.'
aa(lp2382
g18
ag20
ag45
ag1109
ag6
aS'.'
aa(lp2383
g18
ag20
ag45
ag1109
ag23
aS'.'
aa(lp2384
g18
ag20
ag45
ag1109
ag25
aS'.'
aa(lp2385
g18
ag20
ag4
ag4
aS'.'
aa(lp2386
g18
ag20
ag4
ag6
aS'.'
aa(lp2387
g18
ag20
ag4
ag8
ag3
aS'.'
aa(lp2388
g18
ag20
ag4
ag8
ag10
aS'.'
aa(lp2389
g18
ag20
ag4
ag8
ag12
aS'.'
aa(lp2390
g18
ag20
ag4
ag8
ag14
aS'.'
aa(lp2391
g18
ag20
ag4
ag8
ag16
aS'.'
aa(lp2392
g18
ag20
ag4
ag8
ag18
aS'.'
aa(lp2393
g18
ag20
ag4
ag8
ag39
aS'.'
aa(lp2394
g18
ag20
ag4
ag8
ag41
aS'.'
aa(lp2395
g18
ag20
ag4
ag8
ag43
aS'.'
aa(lp2396
g18
ag20
ag4
ag8
ag45
aS'.'
aa(lp2397
g18
ag20
ag4
ag67
ag3
aS'.'
aa(lp2398
g18
ag20
ag4
ag67
ag10
aS'.'
aa(lp2399
g18
ag20
ag4
ag67
ag12
aS'.'
aa(lp2400
g18
ag20
ag4
ag67
ag14
aS'.'
aa(lp2401
g18
ag20
ag4
ag67
ag16
aS'.'
aa(lp2402
g18
ag20
ag4
ag67
ag18
aS'.'
aa(lp2403
g18
ag20
ag4
ag67
ag39
aS'.'
aa(lp2404
g18
ag20
ag4
ag67
ag41
aS'.'
aa(lp2405
g18
ag20
ag4
ag67
ag43
aS'.'
aa(lp2406
g18
ag20
ag4
ag67
ag45
aS'.'
aa(lp2407
g18
ag20
ag4
ag23
aS'.'
aa(lp2408
g18
ag20
ag4
ag25
aS'.'
aa(lp2409
g18
ag20
ag4
ag23
ag3
aS'.'
aa(lp2410
g18
ag20
ag4
ag23
ag10
aS'.'
aa(lp2411
g18
ag20
ag4
ag23
ag12
aS'.'
aa(lp2412
g18
ag20
ag4
ag23
ag14
aS'.'
aa(lp2413
g18
ag20
ag4
ag23
ag16
aS'.'
aa(lp2414
g18
ag20
ag4
ag23
ag18
aS'.'
aa(lp2415
g18
ag20
ag4
ag23
ag39
aS'.'
aa(lp2416
g18
ag20
ag4
ag23
ag41
aS'.'
aa(lp2417
g18
ag20
ag4
ag23
ag43
aS'.'
aa(lp2418
g18
ag20
ag4
ag23
ag45
aS'.'
aa(lp2419
g18
ag20
ag4
ag25
ag3
aS'.'
aa(lp2420
g18
ag20
ag4
ag25
ag10
aS'.'
aa(lp2421
g18
ag20
ag4
ag25
ag12
aS'.'
aa(lp2422
g18
ag20
ag4
ag25
ag14
aS'.'
aa(lp2423
g18
ag20
ag4
ag25
ag16
aS'.'
aa(lp2424
g18
ag20
ag4
ag25
ag18
aS'.'
aa(lp2425
g18
ag20
ag4
ag25
ag39
aS'.'
aa(lp2426
g18
ag20
ag4
ag25
ag41
aS'.'
aa(lp2427
g18
ag20
ag4
ag25
ag43
aS'.'
aa(lp2428
g18
ag20
ag4
ag25
ag45
aS'.'
aa(lp2429
g18
ag20
ag6
ag4
aS'.'
aa(lp2430
g18
ag20
ag6
ag6
aS'.'
aa(lp2431
g18
ag20
ag6
ag8
ag3
aS'.'
aa(lp2432
g18
ag20
ag6
ag8
ag10
aS'.'
aa(lp2433
g18
ag20
ag6
ag8
ag12
aS'.'
aa(lp2434
g18
ag20
ag6
ag8
ag14
aS'.'
aa(lp2435
g18
ag20
ag6
ag8
ag16
aS'.'
aa(lp2436
g18
ag20
ag6
ag8
ag18
aS'.'
aa(lp2437
g18
ag20
ag6
ag8
ag39
aS'.'
aa(lp2438
g18
ag20
ag6
ag8
ag41
aS'.'
aa(lp2439
g18
ag20
ag6
ag8
ag43
aS'.'
aa(lp2440
g18
ag20
ag6
ag8
ag45
aS'.'
aa(lp2441
g18
ag20
ag6
ag67
ag3
aS'.'
aa(lp2442
g18
ag20
ag6
ag67
ag10
aS'.'
aa(lp2443
g18
ag20
ag6
ag67
ag12
aS'.'
aa(lp2444
g18
ag20
ag6
ag67
ag14
aS'.'
aa(lp2445
g18
ag20
ag6
ag67
ag16
aS'.'
aa(lp2446
g18
ag20
ag6
ag67
ag18
aS'.'
aa(lp2447
g18
ag20
ag6
ag67
ag39
aS'.'
aa(lp2448
g18
ag20
ag6
ag67
ag41
aS'.'
aa(lp2449
g18
ag20
ag6
ag67
ag43
aS'.'
aa(lp2450
g18
ag20
ag6
ag67
ag45
aS'.'
aa(lp2451
g18
ag20
ag6
ag23
aS'.'
aa(lp2452
g18
ag20
ag6
ag25
aS'.'
aa(lp2453
g18
ag20
ag6
ag23
ag3
aS'.'
aa(lp2454
g18
ag20
ag6
ag23
ag10
aS'.'
aa(lp2455
g18
ag20
ag6
ag23
ag12
aS'.'
aa(lp2456
g18
ag20
ag6
ag23
ag14
aS'.'
aa(lp2457
g18
ag20
ag6
ag23
ag16
aS'.'
aa(lp2458
g18
ag20
ag6
ag23
ag18
aS'.'
aa(lp2459
g18
ag20
ag6
ag23
ag39
aS'.'
aa(lp2460
g18
ag20
ag6
ag23
ag41
aS'.'
aa(lp2461
g18
ag20
ag6
ag23
ag43
aS'.'
aa(lp2462
g18
ag20
ag6
ag23
ag45
aS'.'
aa(lp2463
g18
ag20
ag6
ag25
ag3
aS'.'
aa(lp2464
g18
ag20
ag6
ag25
ag10
aS'.'
aa(lp2465
g18
ag20
ag6
ag25
ag12
aS'.'
aa(lp2466
g18
ag20
ag6
ag25
ag14
aS'.'
aa(lp2467
g18
ag20
ag6
ag25
ag16
aS'.'
aa(lp2468
g18
ag20
ag6
ag25
ag18
aS'.'
aa(lp2469
g18
ag20
ag6
ag25
ag39
aS'.'
aa(lp2470
g18
ag20
ag6
ag25
ag41
aS'.'
aa(lp2471
g18
ag20
ag6
ag25
ag43
aS'.'
aa(lp2472
g18
ag20
ag6
ag25
ag45
aS'.'
aa(lp2473
g18
ag20
ag8
ag3
ag4
aS'.'
aa(lp2474
g18
ag20
ag8
ag3
ag6
aS'.'
aa(lp2475
g18
ag20
ag8
ag3
ag23
aS'.'
aa(lp2476
g18
ag20
ag8
ag3
ag25
aS'.'
aa(lp2477
g18
ag20
ag8
ag10
ag4
aS'.'
aa(lp2478
g18
ag20
ag8
ag10
ag6
aS'.'
aa(lp2479
g18
ag20
ag8
ag10
ag23
aS'.'
aa(lp2480
g18
ag20
ag8
ag10
ag25
aS'.'
aa(lp2481
g18
ag20
ag8
ag12
ag4
aS'.'
aa(lp2482
g18
ag20
ag8
ag12
ag6
aS'.'
aa(lp2483
g18
ag20
ag8
ag12
ag23
aS'.'
aa(lp2484
g18
ag20
ag8
ag12
ag25
aS'.'
aa(lp2485
g18
ag20
ag8
ag14
ag4
aS'.'
aa(lp2486
g18
ag20
ag8
ag14
ag6
aS'.'
aa(lp2487
g18
ag20
ag8
ag14
ag23
aS'.'
aa(lp2488
g18
ag20
ag8
ag14
ag25
aS'.'
aa(lp2489
g18
ag20
ag8
ag16
ag4
aS'.'
aa(lp2490
g18
ag20
ag8
ag16
ag6
aS'.'
aa(lp2491
g18
ag20
ag8
ag16
ag23
aS'.'
aa(lp2492
g18
ag20
ag8
ag16
ag25
aS'.'
aa(lp2493
g18
ag20
ag8
ag18
ag4
aS'.'
aa(lp2494
g18
ag20
ag8
ag18
ag6
aS'.'
aa(lp2495
g18
ag20
ag8
ag18
ag23
aS'.'
aa(lp2496
g18
ag20
ag8
ag18
ag25
aS'.'
aa(lp2497
g18
ag20
ag8
ag39
ag4
aS'.'
aa(lp2498
g18
ag20
ag8
ag39
ag6
aS'.'
aa(lp2499
g18
ag20
ag8
ag39
ag23
aS'.'
aa(lp2500
g18
ag20
ag8
ag39
ag25
aS'.'
aa(lp2501
g18
ag20
ag8
ag41
ag4
aS'.'
aa(lp2502
g18
ag20
ag8
ag41
ag6
aS'.'
aa(lp2503
g18
ag20
ag8
ag41
ag23
aS'.'
aa(lp2504
g18
ag20
ag8
ag41
ag25
aS'.'
aa(lp2505
g18
ag20
ag8
ag43
ag4
aS'.'
aa(lp2506
g18
ag20
ag8
ag43
ag6
aS'.'
aa(lp2507
g18
ag20
ag8
ag43
ag23
aS'.'
aa(lp2508
g18
ag20
ag8
ag43
ag25
aS'.'
aa(lp2509
g18
ag20
ag8
ag45
ag4
aS'.'
aa(lp2510
g18
ag20
ag8
ag45
ag6
aS'.'
aa(lp2511
g18
ag20
ag8
ag45
ag23
aS'.'
aa(lp2512
g18
ag20
ag8
ag45
ag25
aS'.'
aa(lp2513
g18
ag20
ag67
ag3
ag4
aS'.'
aa(lp2514
g18
ag20
ag67
ag3
ag6
aS'.'
aa(lp2515
g18
ag20
ag67
ag3
ag23
aS'.'
aa(lp2516
g18
ag20
ag67
ag3
ag25
aS'.'
aa(lp2517
g18
ag20
ag67
ag10
ag4
aS'.'
aa(lp2518
g18
ag20
ag67
ag10
ag6
aS'.'
aa(lp2519
g18
ag20
ag67
ag10
ag23
aS'.'
aa(lp2520
g18
ag20
ag67
ag10
ag25
aS'.'
aa(lp2521
g18
ag20
ag67
ag12
ag4
aS'.'
aa(lp2522
g18
ag20
ag67
ag12
ag6
aS'.'
aa(lp2523
g18
ag20
ag67
ag12
ag23
aS'.'
aa(lp2524
g18
ag20
ag67
ag12
ag25
aS'.'
aa(lp2525
g18
ag20
ag67
ag14
ag4
aS'.'
aa(lp2526
g18
ag20
ag67
ag14
ag6
aS'.'
aa(lp2527
g18
ag20
ag67
ag14
ag23
aS'.'
aa(lp2528
g18
ag20
ag67
ag14
ag25
aS'.'
aa(lp2529
g18
ag20
ag67
ag16
ag4
aS'.'
aa(lp2530
g18
ag20
ag67
ag16
ag6
aS'.'
aa(lp2531
g18
ag20
ag67
ag16
ag23
aS'.'
aa(lp2532
g18
ag20
ag67
ag16
ag25
aS'.'
aa(lp2533
g18
ag20
ag67
ag18
ag4
aS'.'
aa(lp2534
g18
ag20
ag67
ag18
ag6
aS'.'
aa(lp2535
g18
ag20
ag67
ag18
ag23
aS'.'
aa(lp2536
g18
ag20
ag67
ag18
ag25
aS'.'
aa(lp2537
g18
ag20
ag67
ag39
ag4
aS'.'
aa(lp2538
g18
ag20
ag67
ag39
ag6
aS'.'
aa(lp2539
g18
ag20
ag67
ag39
ag23
aS'.'
aa(lp2540
g18
ag20
ag67
ag39
ag25
aS'.'
aa(lp2541
g18
ag20
ag67
ag41
ag4
aS'.'
aa(lp2542
g18
ag20
ag67
ag41
ag6
aS'.'
aa(lp2543
g18
ag20
ag67
ag41
ag23
aS'.'
aa(lp2544
g18
ag20
ag67
ag41
ag25
aS'.'
aa(lp2545
g18
ag20
ag67
ag43
ag4
aS'.'
aa(lp2546
g18
ag20
ag67
ag43
ag6
aS'.'
aa(lp2547
g18
ag20
ag67
ag43
ag23
aS'.'
aa(lp2548
g18
ag20
ag67
ag43
ag25
aS'.'
aa(lp2549
g18
ag20
ag67
ag45
ag4
aS'.'
aa(lp2550
g18
ag20
ag67
ag45
ag6
aS'.'
aa(lp2551
g18
ag20
ag67
ag45
ag23
aS'.'
aa(lp2552
g18
ag20
ag67
ag45
ag25
aS'.'
aa(lp2553
g18
ag20
ag23
ag4
aS'.'
aa(lp2554
g18
ag20
ag23
ag6
aS'.'
aa(lp2555
g18
ag20
ag23
ag8
ag3
aS'.'
aa(lp2556
g18
ag20
ag23
ag8
ag10
aS'.'
aa(lp2557
g18
ag20
ag23
ag8
ag12
aS'.'
aa(lp2558
g18
ag20
ag23
ag8
ag14
aS'.'
aa(lp2559
g18
ag20
ag23
ag8
ag16
aS'.'
aa(lp2560
g18
ag20
ag23
ag8
ag18
aS'.'
aa(lp2561
g18
ag20
ag23
ag8
ag39
aS'.'
aa(lp2562
g18
ag20
ag23
ag8
ag41
aS'.'
aa(lp2563
g18
ag20
ag23
ag8
ag43
aS'.'
aa(lp2564
g18
ag20
ag23
ag8
ag45
aS'.'
aa(lp2565
g18
ag20
ag23
ag67
ag3
aS'.'
aa(lp2566
g18
ag20
ag23
ag67
ag10
aS'.'
aa(lp2567
g18
ag20
ag23
ag67
ag12
aS'.'
aa(lp2568
g18
ag20
ag23
ag67
ag14
aS'.'
aa(lp2569
g18
ag20
ag23
ag67
ag16
aS'.'
aa(lp2570
g18
ag20
ag23
ag67
ag18
aS'.'
aa(lp2571
g18
ag20
ag23
ag67
ag39
aS'.'
aa(lp2572
g18
ag20
ag23
ag67
ag41
aS'.'
aa(lp2573
g18
ag20
ag23
ag67
ag43
aS'.'
aa(lp2574
g18
ag20
ag23
ag67
ag45
aS'.'
aa(lp2575
g18
ag20
ag23
ag23
aS'.'
aa(lp2576
g18
ag20
ag23
ag25
aS'.'
aa(lp2577
g18
ag20
ag23
ag23
ag3
aS'.'
aa(lp2578
g18
ag20
ag23
ag23
ag10
aS'.'
aa(lp2579
g18
ag20
ag23
ag23
ag12
aS'.'
aa(lp2580
g18
ag20
ag23
ag23
ag14
aS'.'
aa(lp2581
g18
ag20
ag23
ag23
ag16
aS'.'
aa(lp2582
g18
ag20
ag23
ag23
ag18
aS'.'
aa(lp2583
g18
ag20
ag23
ag23
ag39
aS'.'
aa(lp2584
g18
ag20
ag23
ag23
ag41
aS'.'
aa(lp2585
g18
ag20
ag23
ag23
ag43
aS'.'
aa(lp2586
g18
ag20
ag23
ag23
ag45
aS'.'
aa(lp2587
g18
ag20
ag23
ag25
ag3
aS'.'
aa(lp2588
g18
ag20
ag23
ag25
ag10
aS'.'
aa(lp2589
g18
ag20
ag23
ag25
ag12
aS'.'
aa(lp2590
g18
ag20
ag23
ag25
ag14
aS'.'
aa(lp2591
g18
ag20
ag23
ag25
ag16
aS'.'
aa(lp2592
g18
ag20
ag23
ag25
ag18
aS'.'
aa(lp2593
g18
ag20
ag23
ag25
ag39
aS'.'
aa(lp2594
g18
ag20
ag23
ag25
ag41
aS'.'
aa(lp2595
g18
ag20
ag23
ag25
ag43
aS'.'
aa(lp2596
g18
ag20
ag23
ag25
ag45
aS'.'
aa(lp2597
g18
ag20
ag25
ag4
aS'.'
aa(lp2598
g18
ag20
ag25
ag6
aS'.'
aa(lp2599
g18
ag20
ag25
ag8
ag3
aS'.'
aa(lp2600
g18
ag20
ag25
ag8
ag10
aS'.'
aa(lp2601
g18
ag20
ag25
ag8
ag12
aS'.'
aa(lp2602
g18
ag20
ag25
ag8
ag14
aS'.'
aa(lp2603
g18
ag20
ag25
ag8
ag16
aS'.'
aa(lp2604
g18
ag20
ag25
ag8
ag18
aS'.'
aa(lp2605
g18
ag20
ag25
ag8
ag39
aS'.'
aa(lp2606
g18
ag20
ag25
ag8
ag41
aS'.'
aa(lp2607
g18
ag20
ag25
ag8
ag43
aS'.'
aa(lp2608
g18
ag20
ag25
ag8
ag45
aS'.'
aa(lp2609
g18
ag20
ag25
ag67
ag3
aS'.'
aa(lp2610
g18
ag20
ag25
ag67
ag10
aS'.'
aa(lp2611
g18
ag20
ag25
ag67
ag12
aS'.'
aa(lp2612
g18
ag20
ag25
ag67
ag14
aS'.'
aa(lp2613
g18
ag20
ag25
ag67
ag16
aS'.'
aa(lp2614
g18
ag20
ag25
ag67
ag18
aS'.'
aa(lp2615
g18
ag20
ag25
ag67
ag39
aS'.'
aa(lp2616
g18
ag20
ag25
ag67
ag41
aS'.'
aa(lp2617
g18
ag20
ag25
ag67
ag43
aS'.'
aa(lp2618
g18
ag20
ag25
ag67
ag45
aS'.'
aa(lp2619
g18
ag20
ag25
ag23
aS'.'
aa(lp2620
g18
ag20
ag25
ag25
aS'.'
aa(lp2621
g18
ag20
ag25
ag23
ag3
aS'.'
aa(lp2622
g18
ag20
ag25
ag23
ag10
aS'.'
aa(lp2623
g18
ag20
ag25
ag23
ag12
aS'.'
aa(lp2624
g18
ag20
ag25
ag23
ag14
aS'.'
aa(lp2625
g18
ag20
ag25
ag23
ag16
aS'.'
aa(lp2626
g18
ag20
ag25
ag23
ag18
aS'.'
aa(lp2627
g18
ag20
ag25
ag23
ag39
aS'.'
aa(lp2628
g18
ag20
ag25
ag23
ag41
aS'.'
aa(lp2629
g18
ag20
ag25
ag23
ag43
aS'.'
aa(lp2630
g18
ag20
ag25
ag23
ag45
aS'.'
aa(lp2631
g18
ag20
ag25
ag25
ag3
aS'.'
aa(lp2632
g18
ag20
ag25
ag25
ag10
aS'.'
aa(lp2633
g18
ag20
ag25
ag25
ag12
aS'.'
aa(lp2634
g18
ag20
ag25
ag25
ag14
aS'.'
aa(lp2635
g18
ag20
ag25
ag25
ag16
aS'.'
aa(lp2636
g18
ag20
ag25
ag25
ag18
aS'.'
aa(lp2637
g18
ag20
ag25
ag25
ag39
aS'.'
aa(lp2638
g18
ag20
ag25
ag25
ag41
aS'.'
aa(lp2639
g18
ag20
ag25
ag25
ag43
aS'.'
aa(lp2640
g18
ag20
ag25
ag25
ag45
aS'.'
aa(lp2641
g18
ag20
ag23
ag3
ag4
aS'.'
aa(lp2642
g18
ag20
ag23
ag3
ag6
aS'.'
aa(lp2643
g18
ag20
ag23
ag3
ag23
aS'.'
aa(lp2644
g18
ag20
ag23
ag3
ag25
aS'.'
aa(lp2645
g18
ag20
ag23
ag10
ag4
aS'.'
aa(lp2646
g18
ag20
ag23
ag10
ag6
aS'.'
aa(lp2647
g18
ag20
ag23
ag10
ag23
aS'.'
aa(lp2648
g18
ag20
ag23
ag10
ag25
aS'.'
aa(lp2649
g18
ag20
ag23
ag12
ag4
aS'.'
aa(lp2650
g18
ag20
ag23
ag12
ag6
aS'.'
aa(lp2651
g18
ag20
ag23
ag12
ag23
aS'.'
aa(lp2652
g18
ag20
ag23
ag12
ag25
aS'.'
aa(lp2653
g18
ag20
ag23
ag14
ag4
aS'.'
aa(lp2654
g18
ag20
ag23
ag14
ag6
aS'.'
aa(lp2655
g18
ag20
ag23
ag14
ag23
aS'.'
aa(lp2656
g18
ag20
ag23
ag14
ag25
aS'.'
aa(lp2657
g18
ag20
ag23
ag16
ag4
aS'.'
aa(lp2658
g18
ag20
ag23
ag16
ag6
aS'.'
aa(lp2659
g18
ag20
ag23
ag16
ag23
aS'.'
aa(lp2660
g18
ag20
ag23
ag16
ag25
aS'.'
aa(lp2661
g18
ag20
ag23
ag18
ag4
aS'.'
aa(lp2662
g18
ag20
ag23
ag18
ag6
aS'.'
aa(lp2663
g18
ag20
ag23
ag18
ag23
aS'.'
aa(lp2664
g18
ag20
ag23
ag18
ag25
aS'.'
aa(lp2665
g18
ag20
ag23
ag39
ag4
aS'.'
aa(lp2666
g18
ag20
ag23
ag39
ag6
aS'.'
aa(lp2667
g18
ag20
ag23
ag39
ag23
aS'.'
aa(lp2668
g18
ag20
ag23
ag39
ag25
aS'.'
aa(lp2669
g18
ag20
ag23
ag41
ag4
aS'.'
aa(lp2670
g18
ag20
ag23
ag41
ag6
aS'.'
aa(lp2671
g18
ag20
ag23
ag41
ag23
aS'.'
aa(lp2672
g18
ag20
ag23
ag41
ag25
aS'.'
aa(lp2673
g18
ag20
ag23
ag43
ag4
aS'.'
aa(lp2674
g18
ag20
ag23
ag43
ag6
aS'.'
aa(lp2675
g18
ag20
ag23
ag43
ag23
aS'.'
aa(lp2676
g18
ag20
ag23
ag43
ag25
aS'.'
aa(lp2677
g18
ag20
ag23
ag45
ag4
aS'.'
aa(lp2678
g18
ag20
ag23
ag45
ag6
aS'.'
aa(lp2679
g18
ag20
ag23
ag45
ag23
aS'.'
aa(lp2680
g18
ag20
ag23
ag45
ag25
aS'.'
aa(lp2681
g18
ag20
ag25
ag3
ag4
aS'.'
aa(lp2682
g18
ag20
ag25
ag3
ag6
aS'.'
aa(lp2683
g18
ag20
ag25
ag3
ag23
aS'.'
aa(lp2684
g18
ag20
ag25
ag3
ag25
aS'.'
aa(lp2685
g18
ag20
ag25
ag10
ag4
aS'.'
aa(lp2686
g18
ag20
ag25
ag10
ag6
aS'.'
aa(lp2687
g18
ag20
ag25
ag10
ag23
aS'.'
aa(lp2688
g18
ag20
ag25
ag10
ag25
aS'.'
aa(lp2689
g18
ag20
ag25
ag12
ag4
aS'.'
aa(lp2690
g18
ag20
ag25
ag12
ag6
aS'.'
aa(lp2691
g18
ag20
ag25
ag12
ag23
aS'.'
aa(lp2692
g18
ag20
ag25
ag12
ag25
aS'.'
aa(lp2693
g18
ag20
ag25
ag14
ag4
aS'.'
aa(lp2694
g18
ag20
ag25
ag14
ag6
aS'.'
aa(lp2695
g18
ag20
ag25
ag14
ag23
aS'.'
aa(lp2696
g18
ag20
ag25
ag14
ag25
aS'.'
aa(lp2697
g18
ag20
ag25
ag16
ag4
aS'.'
aa(lp2698
g18
ag20
ag25
ag16
ag6
aS'.'
aa(lp2699
g18
ag20
ag25
ag16
ag23
aS'.'
aa(lp2700
g18
ag20
ag25
ag16
ag25
aS'.'
aa(lp2701
g18
ag20
ag25
ag18
ag4
aS'.'
aa(lp2702
g18
ag20
ag25
ag18
ag6
aS'.'
aa(lp2703
g18
ag20
ag25
ag18
ag23
aS'.'
aa(lp2704
g18
ag20
ag25
ag18
ag25
aS'.'
aa(lp2705
g18
ag20
ag25
ag39
ag4
aS'.'
aa(lp2706
g18
ag20
ag25
ag39
ag6
aS'.'
aa(lp2707
g18
ag20
ag25
ag39
ag23
aS'.'
aa(lp2708
g18
ag20
ag25
ag39
ag25
aS'.'
aa(lp2709
g18
ag20
ag25
ag41
ag4
aS'.'
aa(lp2710
g18
ag20
ag25
ag41
ag6
aS'.'
aa(lp2711
g18
ag20
ag25
ag41
ag23
aS'.'
aa(lp2712
g18
ag20
ag25
ag41
ag25
aS'.'
aa(lp2713
g18
ag20
ag25
ag43
ag4
aS'.'
aa(lp2714
g18
ag20
ag25
ag43
ag6
aS'.'
aa(lp2715
g18
ag20
ag25
ag43
ag23
aS'.'
aa(lp2716
g18
ag20
ag25
ag43
ag25
aS'.'
aa(lp2717
g18
ag20
ag25
ag45
ag4
aS'.'
aa(lp2718
g18
ag20
ag25
ag45
ag6
aS'.'
aa(lp2719
g18
ag20
ag25
ag45
ag23
aS'.'
aa(lp2720
g18
ag20
ag25
ag45
ag25
aS'.'
aa(lp2721
g39
ag47
aS'.'
aa(lp2722
g39
ag49
aS'.'
aa(lp2723
g39
ag1104
ag3
aS'.'
aa(lp2724
g39
ag1104
ag10
aS'.'
aa(lp2725
g39
ag1104
ag12
aS'.'
aa(lp2726
g39
ag1104
ag14
aS'.'
aa(lp2727
g39
ag1104
ag16
aS'.'
aa(lp2728
g39
ag1104
ag18
aS'.'
aa(lp2729
g39
ag1104
ag12
ag20
ag4
aS'.'
aa(lp2730
g39
ag1104
ag12
ag20
ag6
aS'.'
aa(lp2731
g39
ag1104
ag12
ag20
ag23
aS'.'
aa(lp2732
g39
ag1104
ag12
ag20
ag25
aS'.'
aa(lp2733
g39
ag1104
ag14
ag20
ag4
aS'.'
aa(lp2734
g39
ag1104
ag14
ag20
ag6
aS'.'
aa(lp2735
g39
ag1104
ag14
ag20
ag23
aS'.'
aa(lp2736
g39
ag1104
ag14
ag20
ag25
aS'.'
aa(lp2737
g39
ag1104
ag16
ag20
ag4
aS'.'
aa(lp2738
g39
ag1104
ag16
ag20
ag6
aS'.'
aa(lp2739
g39
ag1104
ag16
ag20
ag23
aS'.'
aa(lp2740
g39
ag1104
ag16
ag20
ag25
aS'.'
aa(lp2741
g39
ag1104
ag18
ag20
ag4
aS'.'
aa(lp2742
g39
ag1104
ag18
ag20
ag6
aS'.'
aa(lp2743
g39
ag1104
ag18
ag20
ag23
aS'.'
aa(lp2744
g39
ag1104
ag18
ag20
ag25
aS'.'
aa(lp2745
g39
ag1104
ag39
aS'.'
aa(lp2746
g39
ag1104
ag41
aS'.'
aa(lp2747
g39
ag1104
ag43
aS'.'
aa(lp2748
g39
ag1104
ag45
aS'.'
aa(lp2749
g39
ag1104
ag39
ag20
ag47
aS'.'
aa(lp2750
g39
ag1104
ag39
ag20
ag49
aS'.'
aa(lp2751
g39
ag1104
ag39
ag20
ag51
aS'.'
aa(lp2752
g39
ag1104
ag39
ag20
ag53
aS'.'
aa(lp2753
g39
ag1104
ag41
ag20
ag47
aS'.'
aa(lp2754
g39
ag1104
ag41
ag20
ag49
aS'.'
aa(lp2755
g39
ag1104
ag41
ag20
ag51
aS'.'
aa(lp2756
g39
ag1104
ag41
ag20
ag53
aS'.'
aa(lp2757
g39
ag1104
ag43
ag20
ag47
aS'.'
aa(lp2758
g39
ag1104
ag43
ag20
ag49
aS'.'
aa(lp2759
g39
ag1104
ag43
ag20
ag51
aS'.'
aa(lp2760
g39
ag1104
ag43
ag20
ag53
aS'.'
aa(lp2761
g39
ag1104
ag45
ag20
ag47
aS'.'
aa(lp2762
g39
ag1104
ag45
ag20
ag49
aS'.'
aa(lp2763
g39
ag1104
ag45
ag20
ag51
aS'.'
aa(lp2764
g39
ag1104
ag45
ag20
ag53
aS'.'
aa(lp2765
g39
ag1109
ag3
aS'.'
aa(lp2766
g39
ag1109
ag10
aS'.'
aa(lp2767
g39
ag1109
ag12
aS'.'
aa(lp2768
g39
ag1109
ag14
aS'.'
aa(lp2769
g39
ag1109
ag16
aS'.'
aa(lp2770
g39
ag1109
ag18
aS'.'
aa(lp2771
g39
ag1109
ag12
ag20
ag4
aS'.'
aa(lp2772
g39
ag1109
ag12
ag20
ag6
aS'.'
aa(lp2773
g39
ag1109
ag12
ag20
ag23
aS'.'
aa(lp2774
g39
ag1109
ag12
ag20
ag25
aS'.'
aa(lp2775
g39
ag1109
ag14
ag20
ag4
aS'.'
aa(lp2776
g39
ag1109
ag14
ag20
ag6
aS'.'
aa(lp2777
g39
ag1109
ag14
ag20
ag23
aS'.'
aa(lp2778
g39
ag1109
ag14
ag20
ag25
aS'.'
aa(lp2779
g39
ag1109
ag16
ag20
ag4
aS'.'
aa(lp2780
g39
ag1109
ag16
ag20
ag6
aS'.'
aa(lp2781
g39
ag1109
ag16
ag20
ag23
aS'.'
aa(lp2782
g39
ag1109
ag16
ag20
ag25
aS'.'
aa(lp2783
g39
ag1109
ag18
ag20
ag4
aS'.'
aa(lp2784
g39
ag1109
ag18
ag20
ag6
aS'.'
aa(lp2785
g39
ag1109
ag18
ag20
ag23
aS'.'
aa(lp2786
g39
ag1109
ag18
ag20
ag25
aS'.'
aa(lp2787
g39
ag1109
ag39
aS'.'
aa(lp2788
g39
ag1109
ag41
aS'.'
aa(lp2789
g39
ag1109
ag43
aS'.'
aa(lp2790
g39
ag1109
ag45
aS'.'
aa(lp2791
g39
ag1109
ag39
ag20
ag47
aS'.'
aa(lp2792
g39
ag1109
ag39
ag20
ag49
aS'.'
aa(lp2793
g39
ag1109
ag39
ag20
ag51
aS'.'
aa(lp2794
g39
ag1109
ag39
ag20
ag53
aS'.'
aa(lp2795
g39
ag1109
ag41
ag20
ag47
aS'.'
aa(lp2796
g39
ag1109
ag41
ag20
ag49
aS'.'
aa(lp2797
g39
ag1109
ag41
ag20
ag51
aS'.'
aa(lp2798
g39
ag1109
ag41
ag20
ag53
aS'.'
aa(lp2799
g39
ag1109
ag43
ag20
ag47
aS'.'
aa(lp2800
g39
ag1109
ag43
ag20
ag49
aS'.'
aa(lp2801
g39
ag1109
ag43
ag20
ag51
aS'.'
aa(lp2802
g39
ag1109
ag43
ag20
ag53
aS'.'
aa(lp2803
g39
ag1109
ag45
ag20
ag47
aS'.'
aa(lp2804
g39
ag1109
ag45
ag20
ag49
aS'.'
aa(lp2805
g39
ag1109
ag45
ag20
ag51
aS'.'
aa(lp2806
g39
ag1109
ag45
ag20
ag53
aS'.'
aa(lp2807
g39
ag51
aS'.'
aa(lp2808
g39
ag53
aS'.'
aa(lp2809
g39
ag51
ag3
aS'.'
aa(lp2810
g39
ag51
ag10
aS'.'
aa(lp2811
g39
ag51
ag12
aS'.'
aa(lp2812
g39
ag51
ag14
aS'.'
aa(lp2813
g39
ag51
ag16
aS'.'
aa(lp2814
g39
ag51
ag18
aS'.'
aa(lp2815
g39
ag51
ag12
ag20
ag4
aS'.'
aa(lp2816
g39
ag51
ag12
ag20
ag6
aS'.'
aa(lp2817
g39
ag51
ag12
ag20
ag23
aS'.'
aa(lp2818
g39
ag51
ag12
ag20
ag25
aS'.'
aa(lp2819
g39
ag51
ag14
ag20
ag4
aS'.'
aa(lp2820
g39
ag51
ag14
ag20
ag6
aS'.'
aa(lp2821
g39
ag51
ag14
ag20
ag23
aS'.'
aa(lp2822
g39
ag51
ag14
ag20
ag25
aS'.'
aa(lp2823
g39
ag51
ag16
ag20
ag4
aS'.'
aa(lp2824
g39
ag51
ag16
ag20
ag6
aS'.'
aa(lp2825
g39
ag51
ag16
ag20
ag23
aS'.'
aa(lp2826
g39
ag51
ag16
ag20
ag25
aS'.'
aa(lp2827
g39
ag51
ag18
ag20
ag4
aS'.'
aa(lp2828
g39
ag51
ag18
ag20
ag6
aS'.'
aa(lp2829
g39
ag51
ag18
ag20
ag23
aS'.'
aa(lp2830
g39
ag51
ag18
ag20
ag25
aS'.'
aa(lp2831
g39
ag51
ag39
aS'.'
aa(lp2832
g39
ag51
ag41
aS'.'
aa(lp2833
g39
ag51
ag43
aS'.'
aa(lp2834
g39
ag51
ag45
aS'.'
aa(lp2835
g39
ag51
ag39
ag20
ag47
aS'.'
aa(lp2836
g39
ag51
ag39
ag20
ag49
aS'.'
aa(lp2837
g39
ag51
ag39
ag20
ag51
aS'.'
aa(lp2838
g39
ag51
ag39
ag20
ag53
aS'.'
aa(lp2839
g39
ag51
ag41
ag20
ag47
aS'.'
aa(lp2840
g39
ag51
ag41
ag20
ag49
aS'.'
aa(lp2841
g39
ag51
ag41
ag20
ag51
aS'.'
aa(lp2842
g39
ag51
ag41
ag20
ag53
aS'.'
aa(lp2843
g39
ag51
ag43
ag20
ag47
aS'.'
aa(lp2844
g39
ag51
ag43
ag20
ag49
aS'.'
aa(lp2845
g39
ag51
ag43
ag20
ag51
aS'.'
aa(lp2846
g39
ag51
ag43
ag20
ag53
aS'.'
aa(lp2847
g39
ag51
ag45
ag20
ag47
aS'.'
aa(lp2848
g39
ag51
ag45
ag20
ag49
aS'.'
aa(lp2849
g39
ag51
ag45
ag20
ag51
aS'.'
aa(lp2850
g39
ag51
ag45
ag20
ag53
aS'.'
aa(lp2851
g39
ag53
ag3
aS'.'
aa(lp2852
g39
ag53
ag10
aS'.'
aa(lp2853
g39
ag53
ag12
aS'.'
aa(lp2854
g39
ag53
ag14
aS'.'
aa(lp2855
g39
ag53
ag16
aS'.'
aa(lp2856
g39
ag53
ag18
aS'.'
aa(lp2857
g39
ag53
ag12
ag20
ag4
aS'.'
aa(lp2858
g39
ag53
ag12
ag20
ag6
aS'.'
aa(lp2859
g39
ag53
ag12
ag20
ag23
aS'.'
aa(lp2860
g39
ag53
ag12
ag20
ag25
aS'.'
aa(lp2861
g39
ag53
ag14
ag20
ag4
aS'.'
aa(lp2862
g39
ag53
ag14
ag20
ag6
aS'.'
aa(lp2863
g39
ag53
ag14
ag20
ag23
aS'.'
aa(lp2864
g39
ag53
ag14
ag20
ag25
aS'.'
aa(lp2865
g39
ag53
ag16
ag20
ag4
aS'.'
aa(lp2866
g39
ag53
ag16
ag20
ag6
aS'.'
aa(lp2867
g39
ag53
ag16
ag20
ag23
aS'.'
aa(lp2868
g39
ag53
ag16
ag20
ag25
aS'.'
aa(lp2869
g39
ag53
ag18
ag20
ag4
aS'.'
aa(lp2870
g39
ag53
ag18
ag20
ag6
aS'.'
aa(lp2871
g39
ag53
ag18
ag20
ag23
aS'.'
aa(lp2872
g39
ag53
ag18
ag20
ag25
aS'.'
aa(lp2873
g39
ag53
ag39
aS'.'
aa(lp2874
g39
ag53
ag41
aS'.'
aa(lp2875
g39
ag53
ag43
aS'.'
aa(lp2876
g39
ag53
ag45
aS'.'
aa(lp2877
g39
ag53
ag39
ag20
ag47
aS'.'
aa(lp2878
g39
ag53
ag39
ag20
ag49
aS'.'
aa(lp2879
g39
ag53
ag39
ag20
ag51
aS'.'
aa(lp2880
g39
ag53
ag39
ag20
ag53
aS'.'
aa(lp2881
g39
ag53
ag41
ag20
ag47
aS'.'
aa(lp2882
g39
ag53
ag41
ag20
ag49
aS'.'
aa(lp2883
g39
ag53
ag41
ag20
ag51
aS'.'
aa(lp2884
g39
ag53
ag41
ag20
ag53
aS'.'
aa(lp2885
g39
ag53
ag43
ag20
ag47
aS'.'
aa(lp2886
g39
ag53
ag43
ag20
ag49
aS'.'
aa(lp2887
g39
ag53
ag43
ag20
ag51
aS'.'
aa(lp2888
g39
ag53
ag43
ag20
ag53
aS'.'
aa(lp2889
g39
ag53
ag45
ag20
ag47
aS'.'
aa(lp2890
g39
ag53
ag45
ag20
ag49
aS'.'
aa(lp2891
g39
ag53
ag45
ag20
ag51
aS'.'
aa(lp2892
g39
ag53
ag45
ag20
ag53
aS'.'
aa(lp2893
g41
ag47
aS'.'
aa(lp2894
g41
ag49
aS'.'
aa(lp2895
g41
ag1104
ag3
aS'.'
aa(lp2896
g41
ag1104
ag10
aS'.'
aa(lp2897
g41
ag1104
ag12
aS'.'
aa(lp2898
g41
ag1104
ag14
aS'.'
aa(lp2899
g41
ag1104
ag16
aS'.'
aa(lp2900
g41
ag1104
ag18
aS'.'
aa(lp2901
g41
ag1104
ag12
ag20
ag4
aS'.'
aa(lp2902
g41
ag1104
ag12
ag20
ag6
aS'.'
aa(lp2903
g41
ag1104
ag12
ag20
ag23
aS'.'
aa(lp2904
g41
ag1104
ag12
ag20
ag25
aS'.'
aa(lp2905
g41
ag1104
ag14
ag20
ag4
aS'.'
aa(lp2906
g41
ag1104
ag14
ag20
ag6
aS'.'
aa(lp2907
g41
ag1104
ag14
ag20
ag23
aS'.'
aa(lp2908
g41
ag1104
ag14
ag20
ag25
aS'.'
aa(lp2909
g41
ag1104
ag16
ag20
ag4
aS'.'
aa(lp2910
g41
ag1104
ag16
ag20
ag6
aS'.'
aa(lp2911
g41
ag1104
ag16
ag20
ag23
aS'.'
aa(lp2912
g41
ag1104
ag16
ag20
ag25
aS'.'
aa(lp2913
g41
ag1104
ag18
ag20
ag4
aS'.'
aa(lp2914
g41
ag1104
ag18
ag20
ag6
aS'.'
aa(lp2915
g41
ag1104
ag18
ag20
ag23
aS'.'
aa(lp2916
g41
ag1104
ag18
ag20
ag25
aS'.'
aa(lp2917
g41
ag1104
ag39
aS'.'
aa(lp2918
g41
ag1104
ag41
aS'.'
aa(lp2919
g41
ag1104
ag43
aS'.'
aa(lp2920
g41
ag1104
ag45
aS'.'
aa(lp2921
g41
ag1104
ag39
ag20
ag47
aS'.'
aa(lp2922
g41
ag1104
ag39
ag20
ag49
aS'.'
aa(lp2923
g41
ag1104
ag39
ag20
ag51
aS'.'
aa(lp2924
g41
ag1104
ag39
ag20
ag53
aS'.'
aa(lp2925
g41
ag1104
ag41
ag20
ag47
aS'.'
aa(lp2926
g41
ag1104
ag41
ag20
ag49
aS'.'
aa(lp2927
g41
ag1104
ag41
ag20
ag51
aS'.'
aa(lp2928
g41
ag1104
ag41
ag20
ag53
aS'.'
aa(lp2929
g41
ag1104
ag43
ag20
ag47
aS'.'
aa(lp2930
g41
ag1104
ag43
ag20
ag49
aS'.'
aa(lp2931
g41
ag1104
ag43
ag20
ag51
aS'.'
aa(lp2932
g41
ag1104
ag43
ag20
ag53
aS'.'
aa(lp2933
g41
ag1104
ag45
ag20
ag47
aS'.'
aa(lp2934
g41
ag1104
ag45
ag20
ag49
aS'.'
aa(lp2935
g41
ag1104
ag45
ag20
ag51
aS'.'
aa(lp2936
g41
ag1104
ag45
ag20
ag53
aS'.'
aa(lp2937
g41
ag1109
ag3
aS'.'
aa(lp2938
g41
ag1109
ag10
aS'.'
aa(lp2939
g41
ag1109
ag12
aS'.'
aa(lp2940
g41
ag1109
ag14
aS'.'
aa(lp2941
g41
ag1109
ag16
aS'.'
aa(lp2942
g41
ag1109
ag18
aS'.'
aa(lp2943
g41
ag1109
ag12
ag20
ag4
aS'.'
aa(lp2944
g41
ag1109
ag12
ag20
ag6
aS'.'
aa(lp2945
g41
ag1109
ag12
ag20
ag23
aS'.'
aa(lp2946
g41
ag1109
ag12
ag20
ag25
aS'.'
aa(lp2947
g41
ag1109
ag14
ag20
ag4
aS'.'
aa(lp2948
g41
ag1109
ag14
ag20
ag6
aS'.'
aa(lp2949
g41
ag1109
ag14
ag20
ag23
aS'.'
aa(lp2950
g41
ag1109
ag14
ag20
ag25
aS'.'
aa(lp2951
g41
ag1109
ag16
ag20
ag4
aS'.'
aa(lp2952
g41
ag1109
ag16
ag20
ag6
aS'.'
aa(lp2953
g41
ag1109
ag16
ag20
ag23
aS'.'
aa(lp2954
g41
ag1109
ag16
ag20
ag25
aS'.'
aa(lp2955
g41
ag1109
ag18
ag20
ag4
aS'.'
aa(lp2956
g41
ag1109
ag18
ag20
ag6
aS'.'
aa(lp2957
g41
ag1109
ag18
ag20
ag23
aS'.'
aa(lp2958
g41
ag1109
ag18
ag20
ag25
aS'.'
aa(lp2959
g41
ag1109
ag39
aS'.'
aa(lp2960
g41
ag1109
ag41
aS'.'
aa(lp2961
g41
ag1109
ag43
aS'.'
aa(lp2962
g41
ag1109
ag45
aS'.'
aa(lp2963
g41
ag1109
ag39
ag20
ag47
aS'.'
aa(lp2964
g41
ag1109
ag39
ag20
ag49
aS'.'
aa(lp2965
g41
ag1109
ag39
ag20
ag51
aS'.'
aa(lp2966
g41
ag1109
ag39
ag20
ag53
aS'.'
aa(lp2967
g41
ag1109
ag41
ag20
ag47
aS'.'
aa(lp2968
g41
ag1109
ag41
ag20
ag49
aS'.'
aa(lp2969
g41
ag1109
ag41
ag20
ag51
aS'.'
aa(lp2970
g41
ag1109
ag41
ag20
ag53
aS'.'
aa(lp2971
g41
ag1109
ag43
ag20
ag47
aS'.'
aa(lp2972
g41
ag1109
ag43
ag20
ag49
aS'.'
aa(lp2973
g41
ag1109
ag43
ag20
ag51
aS'.'
aa(lp2974
g41
ag1109
ag43
ag20
ag53
aS'.'
aa(lp2975
g41
ag1109
ag45
ag20
ag47
aS'.'
aa(lp2976
g41
ag1109
ag45
ag20
ag49
aS'.'
aa(lp2977
g41
ag1109
ag45
ag20
ag51
aS'.'
aa(lp2978
g41
ag1109
ag45
ag20
ag53
aS'.'
aa(lp2979
g41
ag51
aS'.'
aa(lp2980
g41
ag53
aS'.'
aa(lp2981
g41
ag51
ag3
aS'.'
aa(lp2982
g41
ag51
ag10
aS'.'
aa(lp2983
g41
ag51
ag12
aS'.'
aa(lp2984
g41
ag51
ag14
aS'.'
aa(lp2985
g41
ag51
ag16
aS'.'
aa(lp2986
g41
ag51
ag18
aS'.'
aa(lp2987
g41
ag51
ag12
ag20
ag4
aS'.'
aa(lp2988
g41
ag51
ag12
ag20
ag6
aS'.'
aa(lp2989
g41
ag51
ag12
ag20
ag23
aS'.'
aa(lp2990
g41
ag51
ag12
ag20
ag25
aS'.'
aa(lp2991
g41
ag51
ag14
ag20
ag4
aS'.'
aa(lp2992
g41
ag51
ag14
ag20
ag6
aS'.'
aa(lp2993
g41
ag51
ag14
ag20
ag23
aS'.'
aa(lp2994
g41
ag51
ag14
ag20
ag25
aS'.'
aa(lp2995
g41
ag51
ag16
ag20
ag4
aS'.'
aa(lp2996
g41
ag51
ag16
ag20
ag6
aS'.'
aa(lp2997
g41
ag51
ag16
ag20
ag23
aS'.'
aa(lp2998
g41
ag51
ag16
ag20
ag25
aS'.'
aa(lp2999
g41
ag51
ag18
ag20
ag4
aS'.'
aa(lp3000
g41
ag51
ag18
ag20
ag6
aS'.'
aa(lp3001
g41
ag51
ag18
ag20
ag23
aS'.'
aa(lp3002
g41
ag51
ag18
ag20
ag25
aS'.'
aa(lp3003
g41
ag51
ag39
aS'.'
aa(lp3004
g41
ag51
ag41
aS'.'
aa(lp3005
g41
ag51
ag43
aS'.'
aa(lp3006
g41
ag51
ag45
aS'.'
aa(lp3007
g41
ag51
ag39
ag20
ag47
aS'.'
aa(lp3008
g41
ag51
ag39
ag20
ag49
aS'.'
aa(lp3009
g41
ag51
ag39
ag20
ag51
aS'.'
aa(lp3010
g41
ag51
ag39
ag20
ag53
aS'.'
aa(lp3011
g41
ag51
ag41
ag20
ag47
aS'.'
aa(lp3012
g41
ag51
ag41
ag20
ag49
aS'.'
aa(lp3013
g41
ag51
ag41
ag20
ag51
aS'.'
aa(lp3014
g41
ag51
ag41
ag20
ag53
aS'.'
aa(lp3015
g41
ag51
ag43
ag20
ag47
aS'.'
aa(lp3016
g41
ag51
ag43
ag20
ag49
aS'.'
aa(lp3017
g41
ag51
ag43
ag20
ag51
aS'.'
aa(lp3018
g41
ag51
ag43
ag20
ag53
aS'.'
aa(lp3019
g41
ag51
ag45
ag20
ag47
aS'.'
aa(lp3020
g41
ag51
ag45
ag20
ag49
aS'.'
aa(lp3021
g41
ag51
ag45
ag20
ag51
aS'.'
aa(lp3022
g41
ag51
ag45
ag20
ag53
aS'.'
aa(lp3023
g41
ag53
ag3
aS'.'
aa(lp3024
g41
ag53
ag10
aS'.'
aa(lp3025
g41
ag53
ag12
aS'.'
aa(lp3026
g41
ag53
ag14
aS'.'
aa(lp3027
g41
ag53
ag16
aS'.'
aa(lp3028
g41
ag53
ag18
aS'.'
aa(lp3029
g41
ag53
ag12
ag20
ag4
aS'.'
aa(lp3030
g41
ag53
ag12
ag20
ag6
aS'.'
aa(lp3031
g41
ag53
ag12
ag20
ag23
aS'.'
aa(lp3032
g41
ag53
ag12
ag20
ag25
aS'.'
aa(lp3033
g41
ag53
ag14
ag20
ag4
aS'.'
aa(lp3034
g41
ag53
ag14
ag20
ag6
aS'.'
aa(lp3035
g41
ag53
ag14
ag20
ag23
aS'.'
aa(lp3036
g41
ag53
ag14
ag20
ag25
aS'.'
aa(lp3037
g41
ag53
ag16
ag20
ag4
aS'.'
aa(lp3038
g41
ag53
ag16
ag20
ag6
aS'.'
aa(lp3039
g41
ag53
ag16
ag20
ag23
aS'.'
aa(lp3040
g41
ag53
ag16
ag20
ag25
aS'.'
aa(lp3041
g41
ag53
ag18
ag20
ag4
aS'.'
aa(lp3042
g41
ag53
ag18
ag20
ag6
aS'.'
aa(lp3043
g41
ag53
ag18
ag20
ag23
aS'.'
aa(lp3044
g41
ag53
ag18
ag20
ag25
aS'.'
aa(lp3045
g41
ag53
ag39
aS'.'
aa(lp3046
g41
ag53
ag41
aS'.'
aa(lp3047
g41
ag53
ag43
aS'.'
aa(lp3048
g41
ag53
ag45
aS'.'
aa(lp3049
g41
ag53
ag39
ag20
ag47
aS'.'
aa(lp3050
g41
ag53
ag39
ag20
ag49
aS'.'
aa(lp3051
g41
ag53
ag39
ag20
ag51
aS'.'
aa(lp3052
g41
ag53
ag39
ag20
ag53
aS'.'
aa(lp3053
g41
ag53
ag41
ag20
ag47
aS'.'
aa(lp3054
g41
ag53
ag41
ag20
ag49
aS'.'
aa(lp3055
g41
ag53
ag41
ag20
ag51
aS'.'
aa(lp3056
g41
ag53
ag41
ag20
ag53
aS'.'
aa(lp3057
g41
ag53
ag43
ag20
ag47
aS'.'
aa(lp3058
g41
ag53
ag43
ag20
ag49
aS'.'
aa(lp3059
g41
ag53
ag43
ag20
ag51
aS'.'
aa(lp3060
g41
ag53
ag43
ag20
ag53
aS'.'
aa(lp3061
g41
ag53
ag45
ag20
ag47
aS'.'
aa(lp3062
g41
ag53
ag45
ag20
ag49
aS'.'
aa(lp3063
g41
ag53
ag45
ag20
ag51
aS'.'
aa(lp3064
g41
ag53
ag45
ag20
ag53
aS'.'
aa(lp3065
g43
ag47
aS'.'
aa(lp3066
g43
ag49
aS'.'
aa(lp3067
g43
ag1104
ag3
aS'.'
aa(lp3068
g43
ag1104
ag10
aS'.'
aa(lp3069
g43
ag1104
ag12
aS'.'
aa(lp3070
g43
ag1104
ag14
aS'.'
aa(lp3071
g43
ag1104
ag16
aS'.'
aa(lp3072
g43
ag1104
ag18
aS'.'
aa(lp3073
g43
ag1104
ag12
ag20
ag4
aS'.'
aa(lp3074
g43
ag1104
ag12
ag20
ag6
aS'.'
aa(lp3075
g43
ag1104
ag12
ag20
ag23
aS'.'
aa(lp3076
g43
ag1104
ag12
ag20
ag25
aS'.'
aa(lp3077
g43
ag1104
ag14
ag20
ag4
aS'.'
aa(lp3078
g43
ag1104
ag14
ag20
ag6
aS'.'
aa(lp3079
g43
ag1104
ag14
ag20
ag23
aS'.'
aa(lp3080
g43
ag1104
ag14
ag20
ag25
aS'.'
aa(lp3081
g43
ag1104
ag16
ag20
ag4
aS'.'
aa(lp3082
g43
ag1104
ag16
ag20
ag6
aS'.'
aa(lp3083
g43
ag1104
ag16
ag20
ag23
aS'.'
aa(lp3084
g43
ag1104
ag16
ag20
ag25
aS'.'
aa(lp3085
g43
ag1104
ag18
ag20
ag4
aS'.'
aa(lp3086
g43
ag1104
ag18
ag20
ag6
aS'.'
aa(lp3087
g43
ag1104
ag18
ag20
ag23
aS'.'
aa(lp3088
g43
ag1104
ag18
ag20
ag25
aS'.'
aa(lp3089
g43
ag1104
ag39
aS'.'
aa(lp3090
g43
ag1104
ag41
aS'.'
aa(lp3091
g43
ag1104
ag43
aS'.'
aa(lp3092
g43
ag1104
ag45
aS'.'
aa(lp3093
g43
ag1104
ag39
ag20
ag47
aS'.'
aa(lp3094
g43
ag1104
ag39
ag20
ag49
aS'.'
aa(lp3095
g43
ag1104
ag39
ag20
ag51
aS'.'
aa(lp3096
g43
ag1104
ag39
ag20
ag53
aS'.'
aa(lp3097
g43
ag1104
ag41
ag20
ag47
aS'.'
aa(lp3098
g43
ag1104
ag41
ag20
ag49
aS'.'
aa(lp3099
g43
ag1104
ag41
ag20
ag51
aS'.'
aa(lp3100
g43
ag1104
ag41
ag20
ag53
aS'.'
aa(lp3101
g43
ag1104
ag43
ag20
ag47
aS'.'
aa(lp3102
g43
ag1104
ag43
ag20
ag49
aS'.'
aa(lp3103
g43
ag1104
ag43
ag20
ag51
aS'.'
aa(lp3104
g43
ag1104
ag43
ag20
ag53
aS'.'
aa(lp3105
g43
ag1104
ag45
ag20
ag47
aS'.'
aa(lp3106
g43
ag1104
ag45
ag20
ag49
aS'.'
aa(lp3107
g43
ag1104
ag45
ag20
ag51
aS'.'
aa(lp3108
g43
ag1104
ag45
ag20
ag53
aS'.'
aa(lp3109
g43
ag1109
ag3
aS'.'
aa(lp3110
g43
ag1109
ag10
aS'.'
aa(lp3111
g43
ag1109
ag12
aS'.'
aa(lp3112
g43
ag1109
ag14
aS'.'
aa(lp3113
g43
ag1109
ag16
aS'.'
aa(lp3114
g43
ag1109
ag18
aS'.'
aa(lp3115
g43
ag1109
ag12
ag20
ag4
aS'.'
aa(lp3116
g43
ag1109
ag12
ag20
ag6
aS'.'
aa(lp3117
g43
ag1109
ag12
ag20
ag23
aS'.'
aa(lp3118
g43
ag1109
ag12
ag20
ag25
aS'.'
aa(lp3119
g43
ag1109
ag14
ag20
ag4
aS'.'
aa(lp3120
g43
ag1109
ag14
ag20
ag6
aS'.'
aa(lp3121
g43
ag1109
ag14
ag20
ag23
aS'.'
aa(lp3122
g43
ag1109
ag14
ag20
ag25
aS'.'
aa(lp3123
g43
ag1109
ag16
ag20
ag4
aS'.'
aa(lp3124
g43
ag1109
ag16
ag20
ag6
aS'.'
aa(lp3125
g43
ag1109
ag16
ag20
ag23
aS'.'
aa(lp3126
g43
ag1109
ag16
ag20
ag25
aS'.'
aa(lp3127
g43
ag1109
ag18
ag20
ag4
aS'.'
aa(lp3128
g43
ag1109
ag18
ag20
ag6
aS'.'
aa(lp3129
g43
ag1109
ag18
ag20
ag23
aS'.'
aa(lp3130
g43
ag1109
ag18
ag20
ag25
aS'.'
aa(lp3131
g43
ag1109
ag39
aS'.'
aa(lp3132
g43
ag1109
ag41
aS'.'
aa(lp3133
g43
ag1109
ag43
aS'.'
aa(lp3134
g43
ag1109
ag45
aS'.'
aa(lp3135
g43
ag1109
ag39
ag20
ag47
aS'.'
aa(lp3136
g43
ag1109
ag39
ag20
ag49
aS'.'
aa(lp3137
g43
ag1109
ag39
ag20
ag51
aS'.'
aa(lp3138
g43
ag1109
ag39
ag20
ag53
aS'.'
aa(lp3139
g43
ag1109
ag41
ag20
ag47
aS'.'
aa(lp3140
g43
ag1109
ag41
ag20
ag49
aS'.'
aa(lp3141
g43
ag1109
ag41
ag20
ag51
aS'.'
aa(lp3142
g43
ag1109
ag41
ag20
ag53
aS'.'
aa(lp3143
g43
ag1109
ag43
ag20
ag47
aS'.'
aa(lp3144
g43
ag1109
ag43
ag20
ag49
aS'.'
aa(lp3145
g43
ag1109
ag43
ag20
ag51
aS'.'
aa(lp3146
g43
ag1109
ag43
ag20
ag53
aS'.'
aa(lp3147
g43
ag1109
ag45
ag20
ag47
aS'.'
aa(lp3148
g43
ag1109
ag45
ag20
ag49
aS'.'
aa(lp3149
g43
ag1109
ag45
ag20
ag51
aS'.'
aa(lp3150
g43
ag1109
ag45
ag20
ag53
aS'.'
aa(lp3151
g43
ag51
aS'.'
aa(lp3152
g43
ag53
aS'.'
aa(lp3153
g43
ag51
ag3
aS'.'
aa(lp3154
g43
ag51
ag10
aS'.'
aa(lp3155
g43
ag51
ag12
aS'.'
aa(lp3156
g43
ag51
ag14
aS'.'
aa(lp3157
g43
ag51
ag16
aS'.'
aa(lp3158
g43
ag51
ag18
aS'.'
aa(lp3159
g43
ag51
ag12
ag20
ag4
aS'.'
aa(lp3160
g43
ag51
ag12
ag20
ag6
aS'.'
aa(lp3161
g43
ag51
ag12
ag20
ag23
aS'.'
aa(lp3162
g43
ag51
ag12
ag20
ag25
aS'.'
aa(lp3163
g43
ag51
ag14
ag20
ag4
aS'.'
aa(lp3164
g43
ag51
ag14
ag20
ag6
aS'.'
aa(lp3165
g43
ag51
ag14
ag20
ag23
aS'.'
aa(lp3166
g43
ag51
ag14
ag20
ag25
aS'.'
aa(lp3167
g43
ag51
ag16
ag20
ag4
aS'.'
aa(lp3168
g43
ag51
ag16
ag20
ag6
aS'.'
aa(lp3169
g43
ag51
ag16
ag20
ag23
aS'.'
aa(lp3170
g43
ag51
ag16
ag20
ag25
aS'.'
aa(lp3171
g43
ag51
ag18
ag20
ag4
aS'.'
aa(lp3172
g43
ag51
ag18
ag20
ag6
aS'.'
aa(lp3173
g43
ag51
ag18
ag20
ag23
aS'.'
aa(lp3174
g43
ag51
ag18
ag20
ag25
aS'.'
aa(lp3175
g43
ag51
ag39
aS'.'
aa(lp3176
g43
ag51
ag41
aS'.'
aa(lp3177
g43
ag51
ag43
aS'.'
aa(lp3178
g43
ag51
ag45
aS'.'
aa(lp3179
g43
ag51
ag39
ag20
ag47
aS'.'
aa(lp3180
g43
ag51
ag39
ag20
ag49
aS'.'
aa(lp3181
g43
ag51
ag39
ag20
ag51
aS'.'
aa(lp3182
g43
ag51
ag39
ag20
ag53
aS'.'
aa(lp3183
g43
ag51
ag41
ag20
ag47
aS'.'
aa(lp3184
g43
ag51
ag41
ag20
ag49
aS'.'
aa(lp3185
g43
ag51
ag41
ag20
ag51
aS'.'
aa(lp3186
g43
ag51
ag41
ag20
ag53
aS'.'
aa(lp3187
g43
ag51
ag43
ag20
ag47
aS'.'
aa(lp3188
g43
ag51
ag43
ag20
ag49
aS'.'
aa(lp3189
g43
ag51
ag43
ag20
ag51
aS'.'
aa(lp3190
g43
ag51
ag43
ag20
ag53
aS'.'
aa(lp3191
g43
ag51
ag45
ag20
ag47
aS'.'
aa(lp3192
g43
ag51
ag45
ag20
ag49
aS'.'
aa(lp3193
g43
ag51
ag45
ag20
ag51
aS'.'
aa(lp3194
g43
ag51
ag45
ag20
ag53
aS'.'
aa(lp3195
g43
ag53
ag3
aS'.'
aa(lp3196
g43
ag53
ag10
aS'.'
aa(lp3197
g43
ag53
ag12
aS'.'
aa(lp3198
g43
ag53
ag14
aS'.'
aa(lp3199
g43
ag53
ag16
aS'.'
aa(lp3200
g43
ag53
ag18
aS'.'
aa(lp3201
g43
ag53
ag12
ag20
ag4
aS'.'
aa(lp3202
g43
ag53
ag12
ag20
ag6
aS'.'
aa(lp3203
g43
ag53
ag12
ag20
ag23
aS'.'
aa(lp3204
g43
ag53
ag12
ag20
ag25
aS'.'
aa(lp3205
g43
ag53
ag14
ag20
ag4
aS'.'
aa(lp3206
g43
ag53
ag14
ag20
ag6
aS'.'
aa(lp3207
g43
ag53
ag14
ag20
ag23
aS'.'
aa(lp3208
g43
ag53
ag14
ag20
ag25
aS'.'
aa(lp3209
g43
ag53
ag16
ag20
ag4
aS'.'
aa(lp3210
g43
ag53
ag16
ag20
ag6
aS'.'
aa(lp3211
g43
ag53
ag16
ag20
ag23
aS'.'
aa(lp3212
g43
ag53
ag16
ag20
ag25
aS'.'
aa(lp3213
g43
ag53
ag18
ag20
ag4
aS'.'
aa(lp3214
g43
ag53
ag18
ag20
ag6
aS'.'
aa(lp3215
g43
ag53
ag18
ag20
ag23
aS'.'
aa(lp3216
g43
ag53
ag18
ag20
ag25
aS'.'
aa(lp3217
g43
ag53
ag39
aS'.'
aa(lp3218
g43
ag53
ag41
aS'.'
aa(lp3219
g43
ag53
ag43
aS'.'
aa(lp3220
g43
ag53
ag45
aS'.'
aa(lp3221
g43
ag53
ag39
ag20
ag47
aS'.'
aa(lp3222
g43
ag53
ag39
ag20
ag49
aS'.'
aa(lp3223
g43
ag53
ag39
ag20
ag51
aS'.'
aa(lp3224
g43
ag53
ag39
ag20
ag53
aS'.'
aa(lp3225
g43
ag53
ag41
ag20
ag47
aS'.'
aa(lp3226
g43
ag53
ag41
ag20
ag49
aS'.'
aa(lp3227
g43
ag53
ag41
ag20
ag51
aS'.'
aa(lp3228
g43
ag53
ag41
ag20
ag53
aS'.'
aa(lp3229
g43
ag53
ag43
ag20
ag47
aS'.'
aa(lp3230
g43
ag53
ag43
ag20
ag49
aS'.'
aa(lp3231
g43
ag53
ag43
ag20
ag51
aS'.'
aa(lp3232
g43
ag53
ag43
ag20
ag53
aS'.'
aa(lp3233
g43
ag53
ag45
ag20
ag47
aS'.'
aa(lp3234
g43
ag53
ag45
ag20
ag49
aS'.'
aa(lp3235
g43
ag53
ag45
ag20
ag51
aS'.'
aa(lp3236
g43
ag53
ag45
ag20
ag53
aS'.'
aa(lp3237
g45
ag47
aS'.'
aa(lp3238
g45
ag49
aS'.'
aa(lp3239
g45
ag1104
ag3
aS'.'
aa(lp3240
g45
ag1104
ag10
aS'.'
aa(lp3241
g45
ag1104
ag12
aS'.'
aa(lp3242
g45
ag1104
ag14
aS'.'
aa(lp3243
g45
ag1104
ag16
aS'.'
aa(lp3244
g45
ag1104
ag18
aS'.'
aa(lp3245
g45
ag1104
ag12
ag20
ag4
aS'.'
aa(lp3246
g45
ag1104
ag12
ag20
ag6
aS'.'
aa(lp3247
g45
ag1104
ag12
ag20
ag23
aS'.'
aa(lp3248
g45
ag1104
ag12
ag20
ag25
aS'.'
aa(lp3249
g45
ag1104
ag14
ag20
ag4
aS'.'
aa(lp3250
g45
ag1104
ag14
ag20
ag6
aS'.'
aa(lp3251
g45
ag1104
ag14
ag20
ag23
aS'.'
aa(lp3252
g45
ag1104
ag14
ag20
ag25
aS'.'
aa(lp3253
g45
ag1104
ag16
ag20
ag4
aS'.'
aa(lp3254
g45
ag1104
ag16
ag20
ag6
aS'.'
aa(lp3255
g45
ag1104
ag16
ag20
ag23
aS'.'
aa(lp3256
g45
ag1104
ag16
ag20
ag25
aS'.'
aa(lp3257
g45
ag1104
ag18
ag20
ag4
aS'.'
aa(lp3258
g45
ag1104
ag18
ag20
ag6
aS'.'
aa(lp3259
g45
ag1104
ag18
ag20
ag23
aS'.'
aa(lp3260
g45
ag1104
ag18
ag20
ag25
aS'.'
aa(lp3261
g45
ag1104
ag39
aS'.'
aa(lp3262
g45
ag1104
ag41
aS'.'
aa(lp3263
g45
ag1104
ag43
aS'.'
aa(lp3264
g45
ag1104
ag45
aS'.'
aa(lp3265
g45
ag1104
ag39
ag20
ag47
aS'.'
aa(lp3266
g45
ag1104
ag39
ag20
ag49
aS'.'
aa(lp3267
g45
ag1104
ag39
ag20
ag51
aS'.'
aa(lp3268
g45
ag1104
ag39
ag20
ag53
aS'.'
aa(lp3269
g45
ag1104
ag41
ag20
ag47
aS'.'
aa(lp3270
g45
ag1104
ag41
ag20
ag49
aS'.'
aa(lp3271
g45
ag1104
ag41
ag20
ag51
aS'.'
aa(lp3272
g45
ag1104
ag41
ag20
ag53
aS'.'
aa(lp3273
g45
ag1104
ag43
ag20
ag47
aS'.'
aa(lp3274
g45
ag1104
ag43
ag20
ag49
aS'.'
aa(lp3275
g45
ag1104
ag43
ag20
ag51
aS'.'
aa(lp3276
g45
ag1104
ag43
ag20
ag53
aS'.'
aa(lp3277
g45
ag1104
ag45
ag20
ag47
aS'.'
aa(lp3278
g45
ag1104
ag45
ag20
ag49
aS'.'
aa(lp3279
g45
ag1104
ag45
ag20
ag51
aS'.'
aa(lp3280
g45
ag1104
ag45
ag20
ag53
aS'.'
aa(lp3281
g45
ag1109
ag3
aS'.'
aa(lp3282
g45
ag1109
ag10
aS'.'
aa(lp3283
g45
ag1109
ag12
aS'.'
aa(lp3284
g45
ag1109
ag14
aS'.'
aa(lp3285
g45
ag1109
ag16
aS'.'
aa(lp3286
g45
ag1109
ag18
aS'.'
aa(lp3287
g45
ag1109
ag12
ag20
ag4
aS'.'
aa(lp3288
g45
ag1109
ag12
ag20
ag6
aS'.'
aa(lp3289
g45
ag1109
ag12
ag20
ag23
aS'.'
aa(lp3290
g45
ag1109
ag12
ag20
ag25
aS'.'
aa(lp3291
g45
ag1109
ag14
ag20
ag4
aS'.'
aa(lp3292
g45
ag1109
ag14
ag20
ag6
aS'.'
aa(lp3293
g45
ag1109
ag14
ag20
ag23
aS'.'
aa(lp3294
g45
ag1109
ag14
ag20
ag25
aS'.'
aa(lp3295
g45
ag1109
ag16
ag20
ag4
aS'.'
aa(lp3296
g45
ag1109
ag16
ag20
ag6
aS'.'
aa(lp3297
g45
ag1109
ag16
ag20
ag23
aS'.'
aa(lp3298
g45
ag1109
ag16
ag20
ag25
aS'.'
aa(lp3299
g45
ag1109
ag18
ag20
ag4
aS'.'
aa(lp3300
g45
ag1109
ag18
ag20
ag6
aS'.'
aa(lp3301
g45
ag1109
ag18
ag20
ag23
aS'.'
aa(lp3302
g45
ag1109
ag18
ag20
ag25
aS'.'
aa(lp3303
g45
ag1109
ag39
aS'.'
aa(lp3304
g45
ag1109
ag41
aS'.'
aa(lp3305
g45
ag1109
ag43
aS'.'
aa(lp3306
g45
ag1109
ag45
aS'.'
aa(lp3307
g45
ag1109
ag39
ag20
ag47
aS'.'
aa(lp3308
g45
ag1109
ag39
ag20
ag49
aS'.'
aa(lp3309
g45
ag1109
ag39
ag20
ag51
aS'.'
aa(lp3310
g45
ag1109
ag39
ag20
ag53
aS'.'
aa(lp3311
g45
ag1109
ag41
ag20
ag47
aS'.'
aa(lp3312
g45
ag1109
ag41
ag20
ag49
aS'.'
aa(lp3313
g45
ag1109
ag41
ag20
ag51
aS'.'
aa(lp3314
g45
ag1109
ag41
ag20
ag53
aS'.'
aa(lp3315
g45
ag1109
ag43
ag20
ag47
aS'.'
aa(lp3316
g45
ag1109
ag43
ag20
ag49
aS'.'
aa(lp3317
g45
ag1109
ag43
ag20
ag51
aS'.'
aa(lp3318
g45
ag1109
ag43
ag20
ag53
aS'.'
aa(lp3319
g45
ag1109
ag45
ag20
ag47
aS'.'
aa(lp3320
g45
ag1109
ag45
ag20
ag49
aS'.'
aa(lp3321
g45
ag1109
ag45
ag20
ag51
aS'.'
aa(lp3322
g45
ag1109
ag45
ag20
ag53
aS'.'
aa(lp3323
g45
ag51
aS'.'
aa(lp3324
g45
ag53
aS'.'
aa(lp3325
g45
ag51
ag3
aS'.'
aa(lp3326
g45
ag51
ag10
aS'.'
aa(lp3327
g45
ag51
ag12
aS'.'
aa(lp3328
g45
ag51
ag14
aS'.'
aa(lp3329
g45
ag51
ag16
aS'.'
aa(lp3330
g45
ag51
ag18
aS'.'
aa(lp3331
g45
ag51
ag12
ag20
ag4
aS'.'
aa(lp3332
g45
ag51
ag12
ag20
ag6
aS'.'
aa(lp3333
g45
ag51
ag12
ag20
ag23
aS'.'
aa(lp3334
g45
ag51
ag12
ag20
ag25
aS'.'
aa(lp3335
g45
ag51
ag14
ag20
ag4
aS'.'
aa(lp3336
g45
ag51
ag14
ag20
ag6
aS'.'
aa(lp3337
g45
ag51
ag14
ag20
ag23
aS'.'
aa(lp3338
g45
ag51
ag14
ag20
ag25
aS'.'
aa(lp3339
g45
ag51
ag16
ag20
ag4
aS'.'
aa(lp3340
g45
ag51
ag16
ag20
ag6
aS'.'
aa(lp3341
g45
ag51
ag16
ag20
ag23
aS'.'
aa(lp3342
g45
ag51
ag16
ag20
ag25
aS'.'
aa(lp3343
g45
ag51
ag18
ag20
ag4
aS'.'
aa(lp3344
g45
ag51
ag18
ag20
ag6
aS'.'
aa(lp3345
g45
ag51
ag18
ag20
ag23
aS'.'
aa(lp3346
g45
ag51
ag18
ag20
ag25
aS'.'
aa(lp3347
g45
ag51
ag39
aS'.'
aa(lp3348
g45
ag51
ag41
aS'.'
aa(lp3349
g45
ag51
ag43
aS'.'
aa(lp3350
g45
ag51
ag45
aS'.'
aa(lp3351
g45
ag51
ag39
ag20
ag47
aS'.'
aa(lp3352
g45
ag51
ag39
ag20
ag49
aS'.'
aa(lp3353
g45
ag51
ag39
ag20
ag51
aS'.'
aa(lp3354
g45
ag51
ag39
ag20
ag53
aS'.'
aa(lp3355
g45
ag51
ag41
ag20
ag47
aS'.'
aa(lp3356
g45
ag51
ag41
ag20
ag49
aS'.'
aa(lp3357
g45
ag51
ag41
ag20
ag51
aS'.'
aa(lp3358
g45
ag51
ag41
ag20
ag53
aS'.'
aa(lp3359
g45
ag51
ag43
ag20
ag47
aS'.'
aa(lp3360
g45
ag51
ag43
ag20
ag49
aS'.'
aa(lp3361
g45
ag51
ag43
ag20
ag51
aS'.'
aa(lp3362
g45
ag51
ag43
ag20
ag53
aS'.'
aa(lp3363
g45
ag51
ag45
ag20
ag47
aS'.'
aa(lp3364
g45
ag51
ag45
ag20
ag49
aS'.'
aa(lp3365
g45
ag51
ag45
ag20
ag51
aS'.'
aa(lp3366
g45
ag51
ag45
ag20
ag53
aS'.'
aa(lp3367
g45
ag53
ag3
aS'.'
aa(lp3368
g45
ag53
ag10
aS'.'
aa(lp3369
g45
ag53
ag12
aS'.'
aa(lp3370
g45
ag53
ag14
aS'.'
aa(lp3371
g45
ag53
ag16
aS'.'
aa(lp3372
g45
ag53
ag18
aS'.'
aa(lp3373
g45
ag53
ag12
ag20
ag4
aS'.'
aa(lp3374
g45
ag53
ag12
ag20
ag6
aS'.'
aa(lp3375
g45
ag53
ag12
ag20
ag23
aS'.'
aa(lp3376
g45
ag53
ag12
ag20
ag25
aS'.'
aa(lp3377
g45
ag53
ag14
ag20
ag4
aS'.'
aa(lp3378
g45
ag53
ag14
ag20
ag6
aS'.'
aa(lp3379
g45
ag53
ag14
ag20
ag23
aS'.'
aa(lp3380
g45
ag53
ag14
ag20
ag25
aS'.'
aa(lp3381
g45
ag53
ag16
ag20
ag4
aS'.'
aa(lp3382
g45
ag53
ag16
ag20
ag6
aS'.'
aa(lp3383
g45
ag53
ag16
ag20
ag23
aS'.'
aa(lp3384
g45
ag53
ag16
ag20
ag25
aS'.'
aa(lp3385
g45
ag53
ag18
ag20
ag4
aS'.'
aa(lp3386
g45
ag53
ag18
ag20
ag6
aS'.'
aa(lp3387
g45
ag53
ag18
ag20
ag23
aS'.'
aa(lp3388
g45
ag53
ag18
ag20
ag25
aS'.'
aa(lp3389
g45
ag53
ag39
aS'.'
aa(lp3390
g45
ag53
ag41
aS'.'
aa(lp3391
g45
ag53
ag43
aS'.'
aa(lp3392
g45
ag53
ag45
aS'.'
aa(lp3393
g45
ag53
ag39
ag20
ag47
aS'.'
aa(lp3394
g45
ag53
ag39
ag20
ag49
aS'.'
aa(lp3395
g45
ag53
ag39
ag20
ag51
aS'.'
aa(lp3396
g45
ag53
ag39
ag20
ag53
aS'.'
aa(lp3397
g45
ag53
ag41
ag20
ag47
aS'.'
aa(lp3398
g45
ag53
ag41
ag20
ag49
aS'.'
aa(lp3399
g45
ag53
ag41
ag20
ag51
aS'.'
aa(lp3400
g45
ag53
ag41
ag20
ag53
aS'.'
aa(lp3401
g45
ag53
ag43
ag20
ag47
aS'.'
aa(lp3402
g45
ag53
ag43
ag20
ag49
aS'.'
aa(lp3403
g45
ag53
ag43
ag20
ag51
aS'.'
aa(lp3404
g45
ag53
ag43
ag20
ag53
aS'.'
aa(lp3405
g45
ag53
ag45
ag20
ag47
aS'.'
aa(lp3406
g45
ag53
ag45
ag20
ag49
aS'.'
aa(lp3407
g45
ag53
ag45
ag20
ag51
aS'.'
aa(lp3408
g45
ag53
ag45
ag20
ag53
aS'.'
aa(lp3409
g39
ag20
ag3
ag8
ag47
aS'.'
aa(lp3410
g39
ag20
ag3
ag8
ag49
aS'.'
aa(lp3411
g39
ag20
ag3
ag8
ag51
aS'.'
aa(lp3412
g39
ag20
ag3
ag8
ag53
aS'.'
aa(lp3413
g39
ag20
ag3
ag67
ag47
aS'.'
aa(lp3414
g39
ag20
ag3
ag67
ag49
aS'.'
aa(lp3415
g39
ag20
ag3
ag67
ag51
aS'.'
aa(lp3416
g39
ag20
ag3
ag67
ag53
aS'.'
aa(lp3417
g39
ag20
ag10
ag8
ag47
aS'.'
aa(lp3418
g39
ag20
ag10
ag8
ag49
aS'.'
aa(lp3419
g39
ag20
ag10
ag8
ag51
aS'.'
aa(lp3420
g39
ag20
ag10
ag8
ag53
aS'.'
aa(lp3421
g39
ag20
ag10
ag67
ag47
aS'.'
aa(lp3422
g39
ag20
ag10
ag67
ag49
aS'.'
aa(lp3423
g39
ag20
ag10
ag67
ag51
aS'.'
aa(lp3424
g39
ag20
ag10
ag67
ag53
aS'.'
aa(lp3425
g39
ag20
ag12
ag8
ag47
aS'.'
aa(lp3426
g39
ag20
ag12
ag8
ag49
aS'.'
aa(lp3427
g39
ag20
ag12
ag8
ag51
aS'.'
aa(lp3428
g39
ag20
ag12
ag8
ag53
aS'.'
aa(lp3429
g39
ag20
ag12
ag67
ag47
aS'.'
aa(lp3430
g39
ag20
ag12
ag67
ag49
aS'.'
aa(lp3431
g39
ag20
ag12
ag67
ag51
aS'.'
aa(lp3432
g39
ag20
ag12
ag67
ag53
aS'.'
aa(lp3433
g39
ag20
ag14
ag8
ag47
aS'.'
aa(lp3434
g39
ag20
ag14
ag8
ag49
aS'.'
aa(lp3435
g39
ag20
ag14
ag8
ag51
aS'.'
aa(lp3436
g39
ag20
ag14
ag8
ag53
aS'.'
aa(lp3437
g39
ag20
ag14
ag67
ag47
aS'.'
aa(lp3438
g39
ag20
ag14
ag67
ag49
aS'.'
aa(lp3439
g39
ag20
ag14
ag67
ag51
aS'.'
aa(lp3440
g39
ag20
ag14
ag67
ag53
aS'.'
aa(lp3441
g39
ag20
ag16
ag8
ag47
aS'.'
aa(lp3442
g39
ag20
ag16
ag8
ag49
aS'.'
aa(lp3443
g39
ag20
ag16
ag8
ag51
aS'.'
aa(lp3444
g39
ag20
ag16
ag8
ag53
aS'.'
aa(lp3445
g39
ag20
ag16
ag67
ag47
aS'.'
aa(lp3446
g39
ag20
ag16
ag67
ag49
aS'.'
aa(lp3447
g39
ag20
ag16
ag67
ag51
aS'.'
aa(lp3448
g39
ag20
ag16
ag67
ag53
aS'.'
aa(lp3449
g39
ag20
ag18
ag8
ag47
aS'.'
aa(lp3450
g39
ag20
ag18
ag8
ag49
aS'.'
aa(lp3451
g39
ag20
ag18
ag8
ag51
aS'.'
aa(lp3452
g39
ag20
ag18
ag8
ag53
aS'.'
aa(lp3453
g39
ag20
ag18
ag67
ag47
aS'.'
aa(lp3454
g39
ag20
ag18
ag67
ag49
aS'.'
aa(lp3455
g39
ag20
ag18
ag67
ag51
aS'.'
aa(lp3456
g39
ag20
ag18
ag67
ag53
aS'.'
aa(lp3457
g39
ag20
ag39
ag1104
ag47
aS'.'
aa(lp3458
g39
ag20
ag39
ag1104
ag49
aS'.'
aa(lp3459
g39
ag20
ag39
ag1104
ag51
aS'.'
aa(lp3460
g39
ag20
ag39
ag1104
ag53
aS'.'
aa(lp3461
g39
ag20
ag39
ag1109
ag47
aS'.'
aa(lp3462
g39
ag20
ag39
ag1109
ag49
aS'.'
aa(lp3463
g39
ag20
ag39
ag1109
ag51
aS'.'
aa(lp3464
g39
ag20
ag39
ag1109
ag53
aS'.'
aa(lp3465
g39
ag20
ag41
ag1104
ag47
aS'.'
aa(lp3466
g39
ag20
ag41
ag1104
ag49
aS'.'
aa(lp3467
g39
ag20
ag41
ag1104
ag51
aS'.'
aa(lp3468
g39
ag20
ag41
ag1104
ag53
aS'.'
aa(lp3469
g39
ag20
ag41
ag1109
ag47
aS'.'
aa(lp3470
g39
ag20
ag41
ag1109
ag49
aS'.'
aa(lp3471
g39
ag20
ag41
ag1109
ag51
aS'.'
aa(lp3472
g39
ag20
ag41
ag1109
ag53
aS'.'
aa(lp3473
g39
ag20
ag43
ag1104
ag47
aS'.'
aa(lp3474
g39
ag20
ag43
ag1104
ag49
aS'.'
aa(lp3475
g39
ag20
ag43
ag1104
ag51
aS'.'
aa(lp3476
g39
ag20
ag43
ag1104
ag53
aS'.'
aa(lp3477
g39
ag20
ag43
ag1109
ag47
aS'.'
aa(lp3478
g39
ag20
ag43
ag1109
ag49
aS'.'
aa(lp3479
g39
ag20
ag43
ag1109
ag51
aS'.'
aa(lp3480
g39
ag20
ag43
ag1109
ag53
aS'.'
aa(lp3481
g39
ag20
ag45
ag1104
ag47
aS'.'
aa(lp3482
g39
ag20
ag45
ag1104
ag49
aS'.'
aa(lp3483
g39
ag20
ag45
ag1104
ag51
aS'.'
aa(lp3484
g39
ag20
ag45
ag1104
ag53
aS'.'
aa(lp3485
g39
ag20
ag45
ag1109
ag47
aS'.'
aa(lp3486
g39
ag20
ag45
ag1109
ag49
aS'.'
aa(lp3487
g39
ag20
ag45
ag1109
ag51
aS'.'
aa(lp3488
g39
ag20
ag45
ag1109
ag53
aS'.'
aa(lp3489
g39
ag20
ag47
ag47
aS'.'
aa(lp3490
g39
ag20
ag47
ag49
aS'.'
aa(lp3491
g39
ag20
ag47
ag1104
ag3
aS'.'
aa(lp3492
g39
ag20
ag47
ag1104
ag10
aS'.'
aa(lp3493
g39
ag20
ag47
ag1104
ag12
aS'.'
aa(lp3494
g39
ag20
ag47
ag1104
ag14
aS'.'
aa(lp3495
g39
ag20
ag47
ag1104
ag16
aS'.'
aa(lp3496
g39
ag20
ag47
ag1104
ag18
aS'.'
aa(lp3497
g39
ag20
ag47
ag1104
ag39
aS'.'
aa(lp3498
g39
ag20
ag47
ag1104
ag41
aS'.'
aa(lp3499
g39
ag20
ag47
ag1104
ag43
aS'.'
aa(lp3500
g39
ag20
ag47
ag1104
ag45
aS'.'
aa(lp3501
g39
ag20
ag47
ag1109
ag3
aS'.'
aa(lp3502
g39
ag20
ag47
ag1109
ag10
aS'.'
aa(lp3503
g39
ag20
ag47
ag1109
ag12
aS'.'
aa(lp3504
g39
ag20
ag47
ag1109
ag14
aS'.'
aa(lp3505
g39
ag20
ag47
ag1109
ag16
aS'.'
aa(lp3506
g39
ag20
ag47
ag1109
ag18
aS'.'
aa(lp3507
g39
ag20
ag47
ag1109
ag39
aS'.'
aa(lp3508
g39
ag20
ag47
ag1109
ag41
aS'.'
aa(lp3509
g39
ag20
ag47
ag1109
ag43
aS'.'
aa(lp3510
g39
ag20
ag47
ag1109
ag45
aS'.'
aa(lp3511
g39
ag20
ag47
ag51
aS'.'
aa(lp3512
g39
ag20
ag47
ag53
aS'.'
aa(lp3513
g39
ag20
ag47
ag51
ag3
aS'.'
aa(lp3514
g39
ag20
ag47
ag51
ag10
aS'.'
aa(lp3515
g39
ag20
ag47
ag51
ag12
aS'.'
aa(lp3516
g39
ag20
ag47
ag51
ag14
aS'.'
aa(lp3517
g39
ag20
ag47
ag51
ag16
aS'.'
aa(lp3518
g39
ag20
ag47
ag51
ag18
aS'.'
aa(lp3519
g39
ag20
ag47
ag51
ag39
aS'.'
aa(lp3520
g39
ag20
ag47
ag51
ag41
aS'.'
aa(lp3521
g39
ag20
ag47
ag51
ag43
aS'.'
aa(lp3522
g39
ag20
ag47
ag51
ag45
aS'.'
aa(lp3523
g39
ag20
ag47
ag53
ag3
aS'.'
aa(lp3524
g39
ag20
ag47
ag53
ag10
aS'.'
aa(lp3525
g39
ag20
ag47
ag53
ag12
aS'.'
aa(lp3526
g39
ag20
ag47
ag53
ag14
aS'.'
aa(lp3527
g39
ag20
ag47
ag53
ag16
aS'.'
aa(lp3528
g39
ag20
ag47
ag53
ag18
aS'.'
aa(lp3529
g39
ag20
ag47
ag53
ag39
aS'.'
aa(lp3530
g39
ag20
ag47
ag53
ag41
aS'.'
aa(lp3531
g39
ag20
ag47
ag53
ag43
aS'.'
aa(lp3532
g39
ag20
ag47
ag53
ag45
aS'.'
aa(lp3533
g39
ag20
ag49
ag47
aS'.'
aa(lp3534
g39
ag20
ag49
ag49
aS'.'
aa(lp3535
g39
ag20
ag49
ag1104
ag3
aS'.'
aa(lp3536
g39
ag20
ag49
ag1104
ag10
aS'.'
aa(lp3537
g39
ag20
ag49
ag1104
ag12
aS'.'
aa(lp3538
g39
ag20
ag49
ag1104
ag14
aS'.'
aa(lp3539
g39
ag20
ag49
ag1104
ag16
aS'.'
aa(lp3540
g39
ag20
ag49
ag1104
ag18
aS'.'
aa(lp3541
g39
ag20
ag49
ag1104
ag39
aS'.'
aa(lp3542
g39
ag20
ag49
ag1104
ag41
aS'.'
aa(lp3543
g39
ag20
ag49
ag1104
ag43
aS'.'
aa(lp3544
g39
ag20
ag49
ag1104
ag45
aS'.'
aa(lp3545
g39
ag20
ag49
ag1109
ag3
aS'.'
aa(lp3546
g39
ag20
ag49
ag1109
ag10
aS'.'
aa(lp3547
g39
ag20
ag49
ag1109
ag12
aS'.'
aa(lp3548
g39
ag20
ag49
ag1109
ag14
aS'.'
aa(lp3549
g39
ag20
ag49
ag1109
ag16
aS'.'
aa(lp3550
g39
ag20
ag49
ag1109
ag18
aS'.'
aa(lp3551
g39
ag20
ag49
ag1109
ag39
aS'.'
aa(lp3552
g39
ag20
ag49
ag1109
ag41
aS'.'
aa(lp3553
g39
ag20
ag49
ag1109
ag43
aS'.'
aa(lp3554
g39
ag20
ag49
ag1109
ag45
aS'.'
aa(lp3555
g39
ag20
ag49
ag51
aS'.'
aa(lp3556
g39
ag20
ag49
ag53
aS'.'
aa(lp3557
g39
ag20
ag49
ag51
ag3
aS'.'
aa(lp3558
g39
ag20
ag49
ag51
ag10
aS'.'
aa(lp3559
g39
ag20
ag49
ag51
ag12
aS'.'
aa(lp3560
g39
ag20
ag49
ag51
ag14
aS'.'
aa(lp3561
g39
ag20
ag49
ag51
ag16
aS'.'
aa(lp3562
g39
ag20
ag49
ag51
ag18
aS'.'
aa(lp3563
g39
ag20
ag49
ag51
ag39
aS'.'
aa(lp3564
g39
ag20
ag49
ag51
ag41
aS'.'
aa(lp3565
g39
ag20
ag49
ag51
ag43
aS'.'
aa(lp3566
g39
ag20
ag49
ag51
ag45
aS'.'
aa(lp3567
g39
ag20
ag49
ag53
ag3
aS'.'
aa(lp3568
g39
ag20
ag49
ag53
ag10
aS'.'
aa(lp3569
g39
ag20
ag49
ag53
ag12
aS'.'
aa(lp3570
g39
ag20
ag49
ag53
ag14
aS'.'
aa(lp3571
g39
ag20
ag49
ag53
ag16
aS'.'
aa(lp3572
g39
ag20
ag49
ag53
ag18
aS'.'
aa(lp3573
g39
ag20
ag49
ag53
ag39
aS'.'
aa(lp3574
g39
ag20
ag49
ag53
ag41
aS'.'
aa(lp3575
g39
ag20
ag49
ag53
ag43
aS'.'
aa(lp3576
g39
ag20
ag49
ag53
ag45
aS'.'
aa(lp3577
g39
ag20
ag1104
ag3
ag47
aS'.'
aa(lp3578
g39
ag20
ag1104
ag3
ag49
aS'.'
aa(lp3579
g39
ag20
ag1104
ag3
ag51
aS'.'
aa(lp3580
g39
ag20
ag1104
ag3
ag53
aS'.'
aa(lp3581
g39
ag20
ag1104
ag10
ag47
aS'.'
aa(lp3582
g39
ag20
ag1104
ag10
ag49
aS'.'
aa(lp3583
g39
ag20
ag1104
ag10
ag51
aS'.'
aa(lp3584
g39
ag20
ag1104
ag10
ag53
aS'.'
aa(lp3585
g39
ag20
ag1104
ag12
ag47
aS'.'
aa(lp3586
g39
ag20
ag1104
ag12
ag49
aS'.'
aa(lp3587
g39
ag20
ag1104
ag12
ag51
aS'.'
aa(lp3588
g39
ag20
ag1104
ag12
ag53
aS'.'
aa(lp3589
g39
ag20
ag1104
ag14
ag47
aS'.'
aa(lp3590
g39
ag20
ag1104
ag14
ag49
aS'.'
aa(lp3591
g39
ag20
ag1104
ag14
ag51
aS'.'
aa(lp3592
g39
ag20
ag1104
ag14
ag53
aS'.'
aa(lp3593
g39
ag20
ag1104
ag16
ag47
aS'.'
aa(lp3594
g39
ag20
ag1104
ag16
ag49
aS'.'
aa(lp3595
g39
ag20
ag1104
ag16
ag51
aS'.'
aa(lp3596
g39
ag20
ag1104
ag16
ag53
aS'.'
aa(lp3597
g39
ag20
ag1104
ag18
ag47
aS'.'
aa(lp3598
g39
ag20
ag1104
ag18
ag49
aS'.'
aa(lp3599
g39
ag20
ag1104
ag18
ag51
aS'.'
aa(lp3600
g39
ag20
ag1104
ag18
ag53
aS'.'
aa(lp3601
g39
ag20
ag1104
ag39
ag47
aS'.'
aa(lp3602
g39
ag20
ag1104
ag39
ag49
aS'.'
aa(lp3603
g39
ag20
ag1104
ag39
ag51
aS'.'
aa(lp3604
g39
ag20
ag1104
ag39
ag53
aS'.'
aa(lp3605
g39
ag20
ag1104
ag41
ag47
aS'.'
aa(lp3606
g39
ag20
ag1104
ag41
ag49
aS'.'
aa(lp3607
g39
ag20
ag1104
ag41
ag51
aS'.'
aa(lp3608
g39
ag20
ag1104
ag41
ag53
aS'.'
aa(lp3609
g39
ag20
ag1104
ag43
ag47
aS'.'
aa(lp3610
g39
ag20
ag1104
ag43
ag49
aS'.'
aa(lp3611
g39
ag20
ag1104
ag43
ag51
aS'.'
aa(lp3612
g39
ag20
ag1104
ag43
ag53
aS'.'
aa(lp3613
g39
ag20
ag1104
ag45
ag47
aS'.'
aa(lp3614
g39
ag20
ag1104
ag45
ag49
aS'.'
aa(lp3615
g39
ag20
ag1104
ag45
ag51
aS'.'
aa(lp3616
g39
ag20
ag1104
ag45
ag53
aS'.'
aa(lp3617
g39
ag20
ag1109
ag3
ag47
aS'.'
aa(lp3618
g39
ag20
ag1109
ag3
ag49
aS'.'
aa(lp3619
g39
ag20
ag1109
ag3
ag51
aS'.'
aa(lp3620
g39
ag20
ag1109
ag3
ag53
aS'.'
aa(lp3621
g39
ag20
ag1109
ag10
ag47
aS'.'
aa(lp3622
g39
ag20
ag1109
ag10
ag49
aS'.'
aa(lp3623
g39
ag20
ag1109
ag10
ag51
aS'.'
aa(lp3624
g39
ag20
ag1109
ag10
ag53
aS'.'
aa(lp3625
g39
ag20
ag1109
ag12
ag47
aS'.'
aa(lp3626
g39
ag20
ag1109
ag12
ag49
aS'.'
aa(lp3627
g39
ag20
ag1109
ag12
ag51
aS'.'
aa(lp3628
g39
ag20
ag1109
ag12
ag53
aS'.'
aa(lp3629
g39
ag20
ag1109
ag14
ag47
aS'.'
aa(lp3630
g39
ag20
ag1109
ag14
ag49
aS'.'
aa(lp3631
g39
ag20
ag1109
ag14
ag51
aS'.'
aa(lp3632
g39
ag20
ag1109
ag14
ag53
aS'.'
aa(lp3633
g39
ag20
ag1109
ag16
ag47
aS'.'
aa(lp3634
g39
ag20
ag1109
ag16
ag49
aS'.'
aa(lp3635
g39
ag20
ag1109
ag16
ag51
aS'.'
aa(lp3636
g39
ag20
ag1109
ag16
ag53
aS'.'
aa(lp3637
g39
ag20
ag1109
ag18
ag47
aS'.'
aa(lp3638
g39
ag20
ag1109
ag18
ag49
aS'.'
aa(lp3639
g39
ag20
ag1109
ag18
ag51
aS'.'
aa(lp3640
g39
ag20
ag1109
ag18
ag53
aS'.'
aa(lp3641
g39
ag20
ag1109
ag39
ag47
aS'.'
aa(lp3642
g39
ag20
ag1109
ag39
ag49
aS'.'
aa(lp3643
g39
ag20
ag1109
ag39
ag51
aS'.'
aa(lp3644
g39
ag20
ag1109
ag39
ag53
aS'.'
aa(lp3645
g39
ag20
ag1109
ag41
ag47
aS'.'
aa(lp3646
g39
ag20
ag1109
ag41
ag49
aS'.'
aa(lp3647
g39
ag20
ag1109
ag41
ag51
aS'.'
aa(lp3648
g39
ag20
ag1109
ag41
ag53
aS'.'
aa(lp3649
g39
ag20
ag1109
ag43
ag47
aS'.'
aa(lp3650
g39
ag20
ag1109
ag43
ag49
aS'.'
aa(lp3651
g39
ag20
ag1109
ag43
ag51
aS'.'
aa(lp3652
g39
ag20
ag1109
ag43
ag53
aS'.'
aa(lp3653
g39
ag20
ag1109
ag45
ag47
aS'.'
aa(lp3654
g39
ag20
ag1109
ag45
ag49
aS'.'
aa(lp3655
g39
ag20
ag1109
ag45
ag51
aS'.'
aa(lp3656
g39
ag20
ag1109
ag45
ag53
aS'.'
aa(lp3657
g39
ag20
ag51
ag47
aS'.'
aa(lp3658
g39
ag20
ag51
ag49
aS'.'
aa(lp3659
g39
ag20
ag51
ag1104
ag3
aS'.'
aa(lp3660
g39
ag20
ag51
ag1104
ag10
aS'.'
aa(lp3661
g39
ag20
ag51
ag1104
ag12
aS'.'
aa(lp3662
g39
ag20
ag51
ag1104
ag14
aS'.'
aa(lp3663
g39
ag20
ag51
ag1104
ag16
aS'.'
aa(lp3664
g39
ag20
ag51
ag1104
ag18
aS'.'
aa(lp3665
g39
ag20
ag51
ag1104
ag39
aS'.'
aa(lp3666
g39
ag20
ag51
ag1104
ag41
aS'.'
aa(lp3667
g39
ag20
ag51
ag1104
ag43
aS'.'
aa(lp3668
g39
ag20
ag51
ag1104
ag45
aS'.'
aa(lp3669
g39
ag20
ag51
ag1109
ag3
aS'.'
aa(lp3670
g39
ag20
ag51
ag1109
ag10
aS'.'
aa(lp3671
g39
ag20
ag51
ag1109
ag12
aS'.'
aa(lp3672
g39
ag20
ag51
ag1109
ag14
aS'.'
aa(lp3673
g39
ag20
ag51
ag1109
ag16
aS'.'
aa(lp3674
g39
ag20
ag51
ag1109
ag18
aS'.'
aa(lp3675
g39
ag20
ag51
ag1109
ag39
aS'.'
aa(lp3676
g39
ag20
ag51
ag1109
ag41
aS'.'
aa(lp3677
g39
ag20
ag51
ag1109
ag43
aS'.'
aa(lp3678
g39
ag20
ag51
ag1109
ag45
aS'.'
aa(lp3679
g39
ag20
ag51
ag51
aS'.'
aa(lp3680
g39
ag20
ag51
ag53
aS'.'
aa(lp3681
g39
ag20
ag51
ag51
ag3
aS'.'
aa(lp3682
g39
ag20
ag51
ag51
ag10
aS'.'
aa(lp3683
g39
ag20
ag51
ag51
ag12
aS'.'
aa(lp3684
g39
ag20
ag51
ag51
ag14
aS'.'
aa(lp3685
g39
ag20
ag51
ag51
ag16
aS'.'
aa(lp3686
g39
ag20
ag51
ag51
ag18
aS'.'
aa(lp3687
g39
ag20
ag51
ag51
ag39
aS'.'
aa(lp3688
g39
ag20
ag51
ag51
ag41
aS'.'
aa(lp3689
g39
ag20
ag51
ag51
ag43
aS'.'
aa(lp3690
g39
ag20
ag51
ag51
ag45
aS'.'
aa(lp3691
g39
ag20
ag51
ag53
ag3
aS'.'
aa(lp3692
g39
ag20
ag51
ag53
ag10
aS'.'
aa(lp3693
g39
ag20
ag51
ag53
ag12
aS'.'
aa(lp3694
g39
ag20
ag51
ag53
ag14
aS'.'
aa(lp3695
g39
ag20
ag51
ag53
ag16
aS'.'
aa(lp3696
g39
ag20
ag51
ag53
ag18
aS'.'
aa(lp3697
g39
ag20
ag51
ag53
ag39
aS'.'
aa(lp3698
g39
ag20
ag51
ag53
ag41
aS'.'
aa(lp3699
g39
ag20
ag51
ag53
ag43
aS'.'
aa(lp3700
g39
ag20
ag51
ag53
ag45
aS'.'
aa(lp3701
g39
ag20
ag53
ag47
aS'.'
aa(lp3702
g39
ag20
ag53
ag49
aS'.'
aa(lp3703
g39
ag20
ag53
ag1104
ag3
aS'.'
aa(lp3704
g39
ag20
ag53
ag1104
ag10
aS'.'
aa(lp3705
g39
ag20
ag53
ag1104
ag12
aS'.'
aa(lp3706
g39
ag20
ag53
ag1104
ag14
aS'.'
aa(lp3707
g39
ag20
ag53
ag1104
ag16
aS'.'
aa(lp3708
g39
ag20
ag53
ag1104
ag18
aS'.'
aa(lp3709
g39
ag20
ag53
ag1104
ag39
aS'.'
aa(lp3710
g39
ag20
ag53
ag1104
ag41
aS'.'
aa(lp3711
g39
ag20
ag53
ag1104
ag43
aS'.'
aa(lp3712
g39
ag20
ag53
ag1104
ag45
aS'.'
aa(lp3713
g39
ag20
ag53
ag1109
ag3
aS'.'
aa(lp3714
g39
ag20
ag53
ag1109
ag10
aS'.'
aa(lp3715
g39
ag20
ag53
ag1109
ag12
aS'.'
aa(lp3716
g39
ag20
ag53
ag1109
ag14
aS'.'
aa(lp3717
g39
ag20
ag53
ag1109
ag16
aS'.'
aa(lp3718
g39
ag20
ag53
ag1109
ag18
aS'.'
aa(lp3719
g39
ag20
ag53
ag1109
ag39
aS'.'
aa(lp3720
g39
ag20
ag53
ag1109
ag41
aS'.'
aa(lp3721
g39
ag20
ag53
ag1109
ag43
aS'.'
aa(lp3722
g39
ag20
ag53
ag1109
ag45
aS'.'
aa(lp3723
g39
ag20
ag53
ag51
aS'.'
aa(lp3724
g39
ag20
ag53
ag53
aS'.'
aa(lp3725
g39
ag20
ag53
ag51
ag3
aS'.'
aa(lp3726
g39
ag20
ag53
ag51
ag10
aS'.'
aa(lp3727
g39
ag20
ag53
ag51
ag12
aS'.'
aa(lp3728
g39
ag20
ag53
ag51
ag14
aS'.'
aa(lp3729
g39
ag20
ag53
ag51
ag16
aS'.'
aa(lp3730
g39
ag20
ag53
ag51
ag18
aS'.'
aa(lp3731
g39
ag20
ag53
ag51
ag39
aS'.'
aa(lp3732
g39
ag20
ag53
ag51
ag41
aS'.'
aa(lp3733
g39
ag20
ag53
ag51
ag43
aS'.'
aa(lp3734
g39
ag20
ag53
ag51
ag45
aS'.'
aa(lp3735
g39
ag20
ag53
ag53
ag3
aS'.'
aa(lp3736
g39
ag20
ag53
ag53
ag10
aS'.'
aa(lp3737
g39
ag20
ag53
ag53
ag12
aS'.'
aa(lp3738
g39
ag20
ag53
ag53
ag14
aS'.'
aa(lp3739
g39
ag20
ag53
ag53
ag16
aS'.'
aa(lp3740
g39
ag20
ag53
ag53
ag18
aS'.'
aa(lp3741
g39
ag20
ag53
ag53
ag39
aS'.'
aa(lp3742
g39
ag20
ag53
ag53
ag41
aS'.'
aa(lp3743
g39
ag20
ag53
ag53
ag43
aS'.'
aa(lp3744
g39
ag20
ag53
ag53
ag45
aS'.'
aa(lp3745
g39
ag20
ag51
ag3
ag47
aS'.'
aa(lp3746
g39
ag20
ag51
ag3
ag49
aS'.'
aa(lp3747
g39
ag20
ag51
ag3
ag51
aS'.'
aa(lp3748
g39
ag20
ag51
ag3
ag53
aS'.'
aa(lp3749
g39
ag20
ag51
ag10
ag47
aS'.'
aa(lp3750
g39
ag20
ag51
ag10
ag49
aS'.'
aa(lp3751
g39
ag20
ag51
ag10
ag51
aS'.'
aa(lp3752
g39
ag20
ag51
ag10
ag53
aS'.'
aa(lp3753
g39
ag20
ag51
ag12
ag47
aS'.'
aa(lp3754
g39
ag20
ag51
ag12
ag49
aS'.'
aa(lp3755
g39
ag20
ag51
ag12
ag51
aS'.'
aa(lp3756
g39
ag20
ag51
ag12
ag53
aS'.'
aa(lp3757
g39
ag20
ag51
ag14
ag47
aS'.'
aa(lp3758
g39
ag20
ag51
ag14
ag49
aS'.'
aa(lp3759
g39
ag20
ag51
ag14
ag51
aS'.'
aa(lp3760
g39
ag20
ag51
ag14
ag53
aS'.'
aa(lp3761
g39
ag20
ag51
ag16
ag47
aS'.'
aa(lp3762
g39
ag20
ag51
ag16
ag49
aS'.'
aa(lp3763
g39
ag20
ag51
ag16
ag51
aS'.'
aa(lp3764
g39
ag20
ag51
ag16
ag53
aS'.'
aa(lp3765
g39
ag20
ag51
ag18
ag47
aS'.'
aa(lp3766
g39
ag20
ag51
ag18
ag49
aS'.'
aa(lp3767
g39
ag20
ag51
ag18
ag51
aS'.'
aa(lp3768
g39
ag20
ag51
ag18
ag53
aS'.'
aa(lp3769
g39
ag20
ag51
ag39
ag47
aS'.'
aa(lp3770
g39
ag20
ag51
ag39
ag49
aS'.'
aa(lp3771
g39
ag20
ag51
ag39
ag51
aS'.'
aa(lp3772
g39
ag20
ag51
ag39
ag53
aS'.'
aa(lp3773
g39
ag20
ag51
ag41
ag47
aS'.'
aa(lp3774
g39
ag20
ag51
ag41
ag49
aS'.'
aa(lp3775
g39
ag20
ag51
ag41
ag51
aS'.'
aa(lp3776
g39
ag20
ag51
ag41
ag53
aS'.'
aa(lp3777
g39
ag20
ag51
ag43
ag47
aS'.'
aa(lp3778
g39
ag20
ag51
ag43
ag49
aS'.'
aa(lp3779
g39
ag20
ag51
ag43
ag51
aS'.'
aa(lp3780
g39
ag20
ag51
ag43
ag53
aS'.'
aa(lp3781
g39
ag20
ag51
ag45
ag47
aS'.'
aa(lp3782
g39
ag20
ag51
ag45
ag49
aS'.'
aa(lp3783
g39
ag20
ag51
ag45
ag51
aS'.'
aa(lp3784
g39
ag20
ag51
ag45
ag53
aS'.'
aa(lp3785
g39
ag20
ag53
ag3
ag47
aS'.'
aa(lp3786
g39
ag20
ag53
ag3
ag49
aS'.'
aa(lp3787
g39
ag20
ag53
ag3
ag51
aS'.'
aa(lp3788
g39
ag20
ag53
ag3
ag53
aS'.'
aa(lp3789
g39
ag20
ag53
ag10
ag47
aS'.'
aa(lp3790
g39
ag20
ag53
ag10
ag49
aS'.'
aa(lp3791
g39
ag20
ag53
ag10
ag51
aS'.'
aa(lp3792
g39
ag20
ag53
ag10
ag53
aS'.'
aa(lp3793
g39
ag20
ag53
ag12
ag47
aS'.'
aa(lp3794
g39
ag20
ag53
ag12
ag49
aS'.'
aa(lp3795
g39
ag20
ag53
ag12
ag51
aS'.'
aa(lp3796
g39
ag20
ag53
ag12
ag53
aS'.'
aa(lp3797
g39
ag20
ag53
ag14
ag47
aS'.'
aa(lp3798
g39
ag20
ag53
ag14
ag49
aS'.'
aa(lp3799
g39
ag20
ag53
ag14
ag51
aS'.'
aa(lp3800
g39
ag20
ag53
ag14
ag53
aS'.'
aa(lp3801
g39
ag20
ag53
ag16
ag47
aS'.'
aa(lp3802
g39
ag20
ag53
ag16
ag49
aS'.'
aa(lp3803
g39
ag20
ag53
ag16
ag51
aS'.'
aa(lp3804
g39
ag20
ag53
ag16
ag53
aS'.'
aa(lp3805
g39
ag20
ag53
ag18
ag47
aS'.'
aa(lp3806
g39
ag20
ag53
ag18
ag49
aS'.'
aa(lp3807
g39
ag20
ag53
ag18
ag51
aS'.'
aa(lp3808
g39
ag20
ag53
ag18
ag53
aS'.'
aa(lp3809
g39
ag20
ag53
ag39
ag47
aS'.'
aa(lp3810
g39
ag20
ag53
ag39
ag49
aS'.'
aa(lp3811
g39
ag20
ag53
ag39
ag51
aS'.'
aa(lp3812
g39
ag20
ag53
ag39
ag53
aS'.'
aa(lp3813
g39
ag20
ag53
ag41
ag47
aS'.'
aa(lp3814
g39
ag20
ag53
ag41
ag49
aS'.'
aa(lp3815
g39
ag20
ag53
ag41
ag51
aS'.'
aa(lp3816
g39
ag20
ag53
ag41
ag53
aS'.'
aa(lp3817
g39
ag20
ag53
ag43
ag47
aS'.'
aa(lp3818
g39
ag20
ag53
ag43
ag49
aS'.'
aa(lp3819
g39
ag20
ag53
ag43
ag51
aS'.'
aa(lp3820
g39
ag20
ag53
ag43
ag53
aS'.'
aa(lp3821
g39
ag20
ag53
ag45
ag47
aS'.'
aa(lp3822
g39
ag20
ag53
ag45
ag49
aS'.'
aa(lp3823
g39
ag20
ag53
ag45
ag51
aS'.'
aa(lp3824
g39
ag20
ag53
ag45
ag53
aS'.'
aa(lp3825
g41
ag20
ag3
ag8
ag47
aS'.'
aa(lp3826
g41
ag20
ag3
ag8
ag49
aS'.'
aa(lp3827
g41
ag20
ag3
ag8
ag51
aS'.'
aa(lp3828
g41
ag20
ag3
ag8
ag53
aS'.'
aa(lp3829
g41
ag20
ag3
ag67
ag47
aS'.'
aa(lp3830
g41
ag20
ag3
ag67
ag49
aS'.'
aa(lp3831
g41
ag20
ag3
ag67
ag51
aS'.'
aa(lp3832
g41
ag20
ag3
ag67
ag53
aS'.'
aa(lp3833
g41
ag20
ag10
ag8
ag47
aS'.'
aa(lp3834
g41
ag20
ag10
ag8
ag49
aS'.'
aa(lp3835
g41
ag20
ag10
ag8
ag51
aS'.'
aa(lp3836
g41
ag20
ag10
ag8
ag53
aS'.'
aa(lp3837
g41
ag20
ag10
ag67
ag47
aS'.'
aa(lp3838
g41
ag20
ag10
ag67
ag49
aS'.'
aa(lp3839
g41
ag20
ag10
ag67
ag51
aS'.'
aa(lp3840
g41
ag20
ag10
ag67
ag53
aS'.'
aa(lp3841
g41
ag20
ag12
ag8
ag47
aS'.'
aa(lp3842
g41
ag20
ag12
ag8
ag49
aS'.'
aa(lp3843
g41
ag20
ag12
ag8
ag51
aS'.'
aa(lp3844
g41
ag20
ag12
ag8
ag53
aS'.'
aa(lp3845
g41
ag20
ag12
ag67
ag47
aS'.'
aa(lp3846
g41
ag20
ag12
ag67
ag49
aS'.'
aa(lp3847
g41
ag20
ag12
ag67
ag51
aS'.'
aa(lp3848
g41
ag20
ag12
ag67
ag53
aS'.'
aa(lp3849
g41
ag20
ag14
ag8
ag47
aS'.'
aa(lp3850
g41
ag20
ag14
ag8
ag49
aS'.'
aa(lp3851
g41
ag20
ag14
ag8
ag51
aS'.'
aa(lp3852
g41
ag20
ag14
ag8
ag53
aS'.'
aa(lp3853
g41
ag20
ag14
ag67
ag47
aS'.'
aa(lp3854
g41
ag20
ag14
ag67
ag49
aS'.'
aa(lp3855
g41
ag20
ag14
ag67
ag51
aS'.'
aa(lp3856
g41
ag20
ag14
ag67
ag53
aS'.'
aa(lp3857
g41
ag20
ag16
ag8
ag47
aS'.'
aa(lp3858
g41
ag20
ag16
ag8
ag49
aS'.'
aa(lp3859
g41
ag20
ag16
ag8
ag51
aS'.'
aa(lp3860
g41
ag20
ag16
ag8
ag53
aS'.'
aa(lp3861
g41
ag20
ag16
ag67
ag47
aS'.'
aa(lp3862
g41
ag20
ag16
ag67
ag49
aS'.'
aa(lp3863
g41
ag20
ag16
ag67
ag51
aS'.'
aa(lp3864
g41
ag20
ag16
ag67
ag53
aS'.'
aa(lp3865
g41
ag20
ag18
ag8
ag47
aS'.'
aa(lp3866
g41
ag20
ag18
ag8
ag49
aS'.'
aa(lp3867
g41
ag20
ag18
ag8
ag51
aS'.'
aa(lp3868
g41
ag20
ag18
ag8
ag53
aS'.'
aa(lp3869
g41
ag20
ag18
ag67
ag47
aS'.'
aa(lp3870
g41
ag20
ag18
ag67
ag49
aS'.'
aa(lp3871
g41
ag20
ag18
ag67
ag51
aS'.'
aa(lp3872
g41
ag20
ag18
ag67
ag53
aS'.'
aa(lp3873
g41
ag20
ag39
ag1104
ag47
aS'.'
aa(lp3874
g41
ag20
ag39
ag1104
ag49
aS'.'
aa(lp3875
g41
ag20
ag39
ag1104
ag51
aS'.'
aa(lp3876
g41
ag20
ag39
ag1104
ag53
aS'.'
aa(lp3877
g41
ag20
ag39
ag1109
ag47
aS'.'
aa(lp3878
g41
ag20
ag39
ag1109
ag49
aS'.'
aa(lp3879
g41
ag20
ag39
ag1109
ag51
aS'.'
aa(lp3880
g41
ag20
ag39
ag1109
ag53
aS'.'
aa(lp3881
g41
ag20
ag41
ag1104
ag47
aS'.'
aa(lp3882
g41
ag20
ag41
ag1104
ag49
aS'.'
aa(lp3883
g41
ag20
ag41
ag1104
ag51
aS'.'
aa(lp3884
g41
ag20
ag41
ag1104
ag53
aS'.'
aa(lp3885
g41
ag20
ag41
ag1109
ag47
aS'.'
aa(lp3886
g41
ag20
ag41
ag1109
ag49
aS'.'
aa(lp3887
g41
ag20
ag41
ag1109
ag51
aS'.'
aa(lp3888
g41
ag20
ag41
ag1109
ag53
aS'.'
aa(lp3889
g41
ag20
ag43
ag1104
ag47
aS'.'
aa(lp3890
g41
ag20
ag43
ag1104
ag49
aS'.'
aa(lp3891
g41
ag20
ag43
ag1104
ag51
aS'.'
aa(lp3892
g41
ag20
ag43
ag1104
ag53
aS'.'
aa(lp3893
g41
ag20
ag43
ag1109
ag47
aS'.'
aa(lp3894
g41
ag20
ag43
ag1109
ag49
aS'.'
aa(lp3895
g41
ag20
ag43
ag1109
ag51
aS'.'
aa(lp3896
g41
ag20
ag43
ag1109
ag53
aS'.'
aa(lp3897
g41
ag20
ag45
ag1104
ag47
aS'.'
aa(lp3898
g41
ag20
ag45
ag1104
ag49
aS'.'
aa(lp3899
g41
ag20
ag45
ag1104
ag51
aS'.'
aa(lp3900
g41
ag20
ag45
ag1104
ag53
aS'.'
aa(lp3901
g41
ag20
ag45
ag1109
ag47
aS'.'
aa(lp3902
g41
ag20
ag45
ag1109
ag49
aS'.'
aa(lp3903
g41
ag20
ag45
ag1109
ag51
aS'.'
aa(lp3904
g41
ag20
ag45
ag1109
ag53
aS'.'
aa(lp3905
g41
ag20
ag47
ag47
aS'.'
aa(lp3906
g41
ag20
ag47
ag49
aS'.'
aa(lp3907
g41
ag20
ag47
ag1104
ag3
aS'.'
aa(lp3908
g41
ag20
ag47
ag1104
ag10
aS'.'
aa(lp3909
g41
ag20
ag47
ag1104
ag12
aS'.'
aa(lp3910
g41
ag20
ag47
ag1104
ag14
aS'.'
aa(lp3911
g41
ag20
ag47
ag1104
ag16
aS'.'
aa(lp3912
g41
ag20
ag47
ag1104
ag18
aS'.'
aa(lp3913
g41
ag20
ag47
ag1104
ag39
aS'.'
aa(lp3914
g41
ag20
ag47
ag1104
ag41
aS'.'
aa(lp3915
g41
ag20
ag47
ag1104
ag43
aS'.'
aa(lp3916
g41
ag20
ag47
ag1104
ag45
aS'.'
aa(lp3917
g41
ag20
ag47
ag1109
ag3
aS'.'
aa(lp3918
g41
ag20
ag47
ag1109
ag10
aS'.'
aa(lp3919
g41
ag20
ag47
ag1109
ag12
aS'.'
aa(lp3920
g41
ag20
ag47
ag1109
ag14
aS'.'
aa(lp3921
g41
ag20
ag47
ag1109
ag16
aS'.'
aa(lp3922
g41
ag20
ag47
ag1109
ag18
aS'.'
aa(lp3923
g41
ag20
ag47
ag1109
ag39
aS'.'
aa(lp3924
g41
ag20
ag47
ag1109
ag41
aS'.'
aa(lp3925
g41
ag20
ag47
ag1109
ag43
aS'.'
aa(lp3926
g41
ag20
ag47
ag1109
ag45
aS'.'
aa(lp3927
g41
ag20
ag47
ag51
aS'.'
aa(lp3928
g41
ag20
ag47
ag53
aS'.'
aa(lp3929
g41
ag20
ag47
ag51
ag3
aS'.'
aa(lp3930
g41
ag20
ag47
ag51
ag10
aS'.'
aa(lp3931
g41
ag20
ag47
ag51
ag12
aS'.'
aa(lp3932
g41
ag20
ag47
ag51
ag14
aS'.'
aa(lp3933
g41
ag20
ag47
ag51
ag16
aS'.'
aa(lp3934
g41
ag20
ag47
ag51
ag18
aS'.'
aa(lp3935
g41
ag20
ag47
ag51
ag39
aS'.'
aa(lp3936
g41
ag20
ag47
ag51
ag41
aS'.'
aa(lp3937
g41
ag20
ag47
ag51
ag43
aS'.'
aa(lp3938
g41
ag20
ag47
ag51
ag45
aS'.'
aa(lp3939
g41
ag20
ag47
ag53
ag3
aS'.'
aa(lp3940
g41
ag20
ag47
ag53
ag10
aS'.'
aa(lp3941
g41
ag20
ag47
ag53
ag12
aS'.'
aa(lp3942
g41
ag20
ag47
ag53
ag14
aS'.'
aa(lp3943
g41
ag20
ag47
ag53
ag16
aS'.'
aa(lp3944
g41
ag20
ag47
ag53
ag18
aS'.'
aa(lp3945
g41
ag20
ag47
ag53
ag39
aS'.'
aa(lp3946
g41
ag20
ag47
ag53
ag41
aS'.'
aa(lp3947
g41
ag20
ag47
ag53
ag43
aS'.'
aa(lp3948
g41
ag20
ag47
ag53
ag45
aS'.'
aa(lp3949
g41
ag20
ag49
ag47
aS'.'
aa(lp3950
g41
ag20
ag49
ag49
aS'.'
aa(lp3951
g41
ag20
ag49
ag1104
ag3
aS'.'
aa(lp3952
g41
ag20
ag49
ag1104
ag10
aS'.'
aa(lp3953
g41
ag20
ag49
ag1104
ag12
aS'.'
aa(lp3954
g41
ag20
ag49
ag1104
ag14
aS'.'
aa(lp3955
g41
ag20
ag49
ag1104
ag16
aS'.'
aa(lp3956
g41
ag20
ag49
ag1104
ag18
aS'.'
aa(lp3957
g41
ag20
ag49
ag1104
ag39
aS'.'
aa(lp3958
g41
ag20
ag49
ag1104
ag41
aS'.'
aa(lp3959
g41
ag20
ag49
ag1104
ag43
aS'.'
aa(lp3960
g41
ag20
ag49
ag1104
ag45
aS'.'
aa(lp3961
g41
ag20
ag49
ag1109
ag3
aS'.'
aa(lp3962
g41
ag20
ag49
ag1109
ag10
aS'.'
aa(lp3963
g41
ag20
ag49
ag1109
ag12
aS'.'
aa(lp3964
g41
ag20
ag49
ag1109
ag14
aS'.'
aa(lp3965
g41
ag20
ag49
ag1109
ag16
aS'.'
aa(lp3966
g41
ag20
ag49
ag1109
ag18
aS'.'
aa(lp3967
g41
ag20
ag49
ag1109
ag39
aS'.'
aa(lp3968
g41
ag20
ag49
ag1109
ag41
aS'.'
aa(lp3969
g41
ag20
ag49
ag1109
ag43
aS'.'
aa(lp3970
g41
ag20
ag49
ag1109
ag45
aS'.'
aa(lp3971
g41
ag20
ag49
ag51
aS'.'
aa(lp3972
g41
ag20
ag49
ag53
aS'.'
aa(lp3973
g41
ag20
ag49
ag51
ag3
aS'.'
aa(lp3974
g41
ag20
ag49
ag51
ag10
aS'.'
aa(lp3975
g41
ag20
ag49
ag51
ag12
aS'.'
aa(lp3976
g41
ag20
ag49
ag51
ag14
aS'.'
aa(lp3977
g41
ag20
ag49
ag51
ag16
aS'.'
aa(lp3978
g41
ag20
ag49
ag51
ag18
aS'.'
aa(lp3979
g41
ag20
ag49
ag51
ag39
aS'.'
aa(lp3980
g41
ag20
ag49
ag51
ag41
aS'.'
aa(lp3981
g41
ag20
ag49
ag51
ag43
aS'.'
aa(lp3982
g41
ag20
ag49
ag51
ag45
aS'.'
aa(lp3983
g41
ag20
ag49
ag53
ag3
aS'.'
aa(lp3984
g41
ag20
ag49
ag53
ag10
aS'.'
aa(lp3985
g41
ag20
ag49
ag53
ag12
aS'.'
aa(lp3986
g41
ag20
ag49
ag53
ag14
aS'.'
aa(lp3987
g41
ag20
ag49
ag53
ag16
aS'.'
aa(lp3988
g41
ag20
ag49
ag53
ag18
aS'.'
aa(lp3989
g41
ag20
ag49
ag53
ag39
aS'.'
aa(lp3990
g41
ag20
ag49
ag53
ag41
aS'.'
aa(lp3991
g41
ag20
ag49
ag53
ag43
aS'.'
aa(lp3992
g41
ag20
ag49
ag53
ag45
aS'.'
aa(lp3993
g41
ag20
ag1104
ag3
ag47
aS'.'
aa(lp3994
g41
ag20
ag1104
ag3
ag49
aS'.'
aa(lp3995
g41
ag20
ag1104
ag3
ag51
aS'.'
aa(lp3996
g41
ag20
ag1104
ag3
ag53
aS'.'
aa(lp3997
g41
ag20
ag1104
ag10
ag47
aS'.'
aa(lp3998
g41
ag20
ag1104
ag10
ag49
aS'.'
aa(lp3999
g41
ag20
ag1104
ag10
ag51
aS'.'
aa(lp4000
g41
ag20
ag1104
ag10
ag53
aS'.'
aa(lp4001
g41
ag20
ag1104
ag12
ag47
aS'.'
aa(lp4002
g41
ag20
ag1104
ag12
ag49
aS'.'
aa(lp4003
g41
ag20
ag1104
ag12
ag51
aS'.'
aa(lp4004
g41
ag20
ag1104
ag12
ag53
aS'.'
aa(lp4005
g41
ag20
ag1104
ag14
ag47
aS'.'
aa(lp4006
g41
ag20
ag1104
ag14
ag49
aS'.'
aa(lp4007
g41
ag20
ag1104
ag14
ag51
aS'.'
aa(lp4008
g41
ag20
ag1104
ag14
ag53
aS'.'
aa(lp4009
g41
ag20
ag1104
ag16
ag47
aS'.'
aa(lp4010
g41
ag20
ag1104
ag16
ag49
aS'.'
aa(lp4011
g41
ag20
ag1104
ag16
ag51
aS'.'
aa(lp4012
g41
ag20
ag1104
ag16
ag53
aS'.'
aa(lp4013
g41
ag20
ag1104
ag18
ag47
aS'.'
aa(lp4014
g41
ag20
ag1104
ag18
ag49
aS'.'
aa(lp4015
g41
ag20
ag1104
ag18
ag51
aS'.'
aa(lp4016
g41
ag20
ag1104
ag18
ag53
aS'.'
aa(lp4017
g41
ag20
ag1104
ag39
ag47
aS'.'
aa(lp4018
g41
ag20
ag1104
ag39
ag49
aS'.'
aa(lp4019
g41
ag20
ag1104
ag39
ag51
aS'.'
aa(lp4020
g41
ag20
ag1104
ag39
ag53
aS'.'
aa(lp4021
g41
ag20
ag1104
ag41
ag47
aS'.'
aa(lp4022
g41
ag20
ag1104
ag41
ag49
aS'.'
aa(lp4023
g41
ag20
ag1104
ag41
ag51
aS'.'
aa(lp4024
g41
ag20
ag1104
ag41
ag53
aS'.'
aa(lp4025
g41
ag20
ag1104
ag43
ag47
aS'.'
aa(lp4026
g41
ag20
ag1104
ag43
ag49
aS'.'
aa(lp4027
g41
ag20
ag1104
ag43
ag51
aS'.'
aa(lp4028
g41
ag20
ag1104
ag43
ag53
aS'.'
aa(lp4029
g41
ag20
ag1104
ag45
ag47
aS'.'
aa(lp4030
g41
ag20
ag1104
ag45
ag49
aS'.'
aa(lp4031
g41
ag20
ag1104
ag45
ag51
aS'.'
aa(lp4032
g41
ag20
ag1104
ag45
ag53
aS'.'
aa(lp4033
g41
ag20
ag1109
ag3
ag47
aS'.'
aa(lp4034
g41
ag20
ag1109
ag3
ag49
aS'.'
aa(lp4035
g41
ag20
ag1109
ag3
ag51
aS'.'
aa(lp4036
g41
ag20
ag1109
ag3
ag53
aS'.'
aa(lp4037
g41
ag20
ag1109
ag10
ag47
aS'.'
aa(lp4038
g41
ag20
ag1109
ag10
ag49
aS'.'
aa(lp4039
g41
ag20
ag1109
ag10
ag51
aS'.'
aa(lp4040
g41
ag20
ag1109
ag10
ag53
aS'.'
aa(lp4041
g41
ag20
ag1109
ag12
ag47
aS'.'
aa(lp4042
g41
ag20
ag1109
ag12
ag49
aS'.'
aa(lp4043
g41
ag20
ag1109
ag12
ag51
aS'.'
aa(lp4044
g41
ag20
ag1109
ag12
ag53
aS'.'
aa(lp4045
g41
ag20
ag1109
ag14
ag47
aS'.'
aa(lp4046
g41
ag20
ag1109
ag14
ag49
aS'.'
aa(lp4047
g41
ag20
ag1109
ag14
ag51
aS'.'
aa(lp4048
g41
ag20
ag1109
ag14
ag53
aS'.'
aa(lp4049
g41
ag20
ag1109
ag16
ag47
aS'.'
aa(lp4050
g41
ag20
ag1109
ag16
ag49
aS'.'
aa(lp4051
g41
ag20
ag1109
ag16
ag51
aS'.'
aa(lp4052
g41
ag20
ag1109
ag16
ag53
aS'.'
aa(lp4053
g41
ag20
ag1109
ag18
ag47
aS'.'
aa(lp4054
g41
ag20
ag1109
ag18
ag49
aS'.'
aa(lp4055
g41
ag20
ag1109
ag18
ag51
aS'.'
aa(lp4056
g41
ag20
ag1109
ag18
ag53
aS'.'
aa(lp4057
g41
ag20
ag1109
ag39
ag47
aS'.'
aa(lp4058
g41
ag20
ag1109
ag39
ag49
aS'.'
aa(lp4059
g41
ag20
ag1109
ag39
ag51
aS'.'
aa(lp4060
g41
ag20
ag1109
ag39
ag53
aS'.'
aa(lp4061
g41
ag20
ag1109
ag41
ag47
aS'.'
aa(lp4062
g41
ag20
ag1109
ag41
ag49
aS'.'
aa(lp4063
g41
ag20
ag1109
ag41
ag51
aS'.'
aa(lp4064
g41
ag20
ag1109
ag41
ag53
aS'.'
aa(lp4065
g41
ag20
ag1109
ag43
ag47
aS'.'
aa(lp4066
g41
ag20
ag1109
ag43
ag49
aS'.'
aa(lp4067
g41
ag20
ag1109
ag43
ag51
aS'.'
aa(lp4068
g41
ag20
ag1109
ag43
ag53
aS'.'
aa(lp4069
g41
ag20
ag1109
ag45
ag47
aS'.'
aa(lp4070
g41
ag20
ag1109
ag45
ag49
aS'.'
aa(lp4071
g41
ag20
ag1109
ag45
ag51
aS'.'
aa(lp4072
g41
ag20
ag1109
ag45
ag53
aS'.'
aa(lp4073
g41
ag20
ag51
ag47
aS'.'
aa(lp4074
g41
ag20
ag51
ag49
aS'.'
aa(lp4075
g41
ag20
ag51
ag1104
ag3
aS'.'
aa(lp4076
g41
ag20
ag51
ag1104
ag10
aS'.'
aa(lp4077
g41
ag20
ag51
ag1104
ag12
aS'.'
aa(lp4078
g41
ag20
ag51
ag1104
ag14
aS'.'
aa(lp4079
g41
ag20
ag51
ag1104
ag16
aS'.'
aa(lp4080
g41
ag20
ag51
ag1104
ag18
aS'.'
aa(lp4081
g41
ag20
ag51
ag1104
ag39
aS'.'
aa(lp4082
g41
ag20
ag51
ag1104
ag41
aS'.'
aa(lp4083
g41
ag20
ag51
ag1104
ag43
aS'.'
aa(lp4084
g41
ag20
ag51
ag1104
ag45
aS'.'
aa(lp4085
g41
ag20
ag51
ag1109
ag3
aS'.'
aa(lp4086
g41
ag20
ag51
ag1109
ag10
aS'.'
aa(lp4087
g41
ag20
ag51
ag1109
ag12
aS'.'
aa(lp4088
g41
ag20
ag51
ag1109
ag14
aS'.'
aa(lp4089
g41
ag20
ag51
ag1109
ag16
aS'.'
aa(lp4090
g41
ag20
ag51
ag1109
ag18
aS'.'
aa(lp4091
g41
ag20
ag51
ag1109
ag39
aS'.'
aa(lp4092
g41
ag20
ag51
ag1109
ag41
aS'.'
aa(lp4093
g41
ag20
ag51
ag1109
ag43
aS'.'
aa(lp4094
g41
ag20
ag51
ag1109
ag45
aS'.'
aa(lp4095
g41
ag20
ag51
ag51
aS'.'
aa(lp4096
g41
ag20
ag51
ag53
aS'.'
aa(lp4097
g41
ag20
ag51
ag51
ag3
aS'.'
aa(lp4098
g41
ag20
ag51
ag51
ag10
aS'.'
aa(lp4099
g41
ag20
ag51
ag51
ag12
aS'.'
aa(lp4100
g41
ag20
ag51
ag51
ag14
aS'.'
aa(lp4101
g41
ag20
ag51
ag51
ag16
aS'.'
aa(lp4102
g41
ag20
ag51
ag51
ag18
aS'.'
aa(lp4103
g41
ag20
ag51
ag51
ag39
aS'.'
aa(lp4104
g41
ag20
ag51
ag51
ag41
aS'.'
aa(lp4105
g41
ag20
ag51
ag51
ag43
aS'.'
aa(lp4106
g41
ag20
ag51
ag51
ag45
aS'.'
aa(lp4107
g41
ag20
ag51
ag53
ag3
aS'.'
aa(lp4108
g41
ag20
ag51
ag53
ag10
aS'.'
aa(lp4109
g41
ag20
ag51
ag53
ag12
aS'.'
aa(lp4110
g41
ag20
ag51
ag53
ag14
aS'.'
aa(lp4111
g41
ag20
ag51
ag53
ag16
aS'.'
aa(lp4112
g41
ag20
ag51
ag53
ag18
aS'.'
aa(lp4113
g41
ag20
ag51
ag53
ag39
aS'.'
aa(lp4114
g41
ag20
ag51
ag53
ag41
aS'.'
aa(lp4115
g41
ag20
ag51
ag53
ag43
aS'.'
aa(lp4116
g41
ag20
ag51
ag53
ag45
aS'.'
aa(lp4117
g41
ag20
ag53
ag47
aS'.'
aa(lp4118
g41
ag20
ag53
ag49
aS'.'
aa(lp4119
g41
ag20
ag53
ag1104
ag3
aS'.'
aa(lp4120
g41
ag20
ag53
ag1104
ag10
aS'.'
aa(lp4121
g41
ag20
ag53
ag1104
ag12
aS'.'
aa(lp4122
g41
ag20
ag53
ag1104
ag14
aS'.'
aa(lp4123
g41
ag20
ag53
ag1104
ag16
aS'.'
aa(lp4124
g41
ag20
ag53
ag1104
ag18
aS'.'
aa(lp4125
g41
ag20
ag53
ag1104
ag39
aS'.'
aa(lp4126
g41
ag20
ag53
ag1104
ag41
aS'.'
aa(lp4127
g41
ag20
ag53
ag1104
ag43
aS'.'
aa(lp4128
g41
ag20
ag53
ag1104
ag45
aS'.'
aa(lp4129
g41
ag20
ag53
ag1109
ag3
aS'.'
aa(lp4130
g41
ag20
ag53
ag1109
ag10
aS'.'
aa(lp4131
g41
ag20
ag53
ag1109
ag12
aS'.'
aa(lp4132
g41
ag20
ag53
ag1109
ag14
aS'.'
aa(lp4133
g41
ag20
ag53
ag1109
ag16
aS'.'
aa(lp4134
g41
ag20
ag53
ag1109
ag18
aS'.'
aa(lp4135
g41
ag20
ag53
ag1109
ag39
aS'.'
aa(lp4136
g41
ag20
ag53
ag1109
ag41
aS'.'
aa(lp4137
g41
ag20
ag53
ag1109
ag43
aS'.'
aa(lp4138
g41
ag20
ag53
ag1109
ag45
aS'.'
aa(lp4139
g41
ag20
ag53
ag51
aS'.'
aa(lp4140
g41
ag20
ag53
ag53
aS'.'
aa(lp4141
g41
ag20
ag53
ag51
ag3
aS'.'
aa(lp4142
g41
ag20
ag53
ag51
ag10
aS'.'
aa(lp4143
g41
ag20
ag53
ag51
ag12
aS'.'
aa(lp4144
g41
ag20
ag53
ag51
ag14
aS'.'
aa(lp4145
g41
ag20
ag53
ag51
ag16
aS'.'
aa(lp4146
g41
ag20
ag53
ag51
ag18
aS'.'
aa(lp4147
g41
ag20
ag53
ag51
ag39
aS'.'
aa(lp4148
g41
ag20
ag53
ag51
ag41
aS'.'
aa(lp4149
g41
ag20
ag53
ag51
ag43
aS'.'
aa(lp4150
g41
ag20
ag53
ag51
ag45
aS'.'
aa(lp4151
g41
ag20
ag53
ag53
ag3
aS'.'
aa(lp4152
g41
ag20
ag53
ag53
ag10
aS'.'
aa(lp4153
g41
ag20
ag53
ag53
ag12
aS'.'
aa(lp4154
g41
ag20
ag53
ag53
ag14
aS'.'
aa(lp4155
g41
ag20
ag53
ag53
ag16
aS'.'
aa(lp4156
g41
ag20
ag53
ag53
ag18
aS'.'
aa(lp4157
g41
ag20
ag53
ag53
ag39
aS'.'
aa(lp4158
g41
ag20
ag53
ag53
ag41
aS'.'
aa(lp4159
g41
ag20
ag53
ag53
ag43
aS'.'
aa(lp4160
g41
ag20
ag53
ag53
ag45
aS'.'
aa(lp4161
g41
ag20
ag51
ag3
ag47
aS'.'
aa(lp4162
g41
ag20
ag51
ag3
ag49
aS'.'
aa(lp4163
g41
ag20
ag51
ag3
ag51
aS'.'
aa(lp4164
g41
ag20
ag51
ag3
ag53
aS'.'
aa(lp4165
g41
ag20
ag51
ag10
ag47
aS'.'
aa(lp4166
g41
ag20
ag51
ag10
ag49
aS'.'
aa(lp4167
g41
ag20
ag51
ag10
ag51
aS'.'
aa(lp4168
g41
ag20
ag51
ag10
ag53
aS'.'
aa(lp4169
g41
ag20
ag51
ag12
ag47
aS'.'
aa(lp4170
g41
ag20
ag51
ag12
ag49
aS'.'
aa(lp4171
g41
ag20
ag51
ag12
ag51
aS'.'
aa(lp4172
g41
ag20
ag51
ag12
ag53
aS'.'
aa(lp4173
g41
ag20
ag51
ag14
ag47
aS'.'
aa(lp4174
g41
ag20
ag51
ag14
ag49
aS'.'
aa(lp4175
g41
ag20
ag51
ag14
ag51
aS'.'
aa(lp4176
g41
ag20
ag51
ag14
ag53
aS'.'
aa(lp4177
g41
ag20
ag51
ag16
ag47
aS'.'
aa(lp4178
g41
ag20
ag51
ag16
ag49
aS'.'
aa(lp4179
g41
ag20
ag51
ag16
ag51
aS'.'
aa(lp4180
g41
ag20
ag51
ag16
ag53
aS'.'
aa(lp4181
g41
ag20
ag51
ag18
ag47
aS'.'
aa(lp4182
g41
ag20
ag51
ag18
ag49
aS'.'
aa(lp4183
g41
ag20
ag51
ag18
ag51
aS'.'
aa(lp4184
g41
ag20
ag51
ag18
ag53
aS'.'
aa(lp4185
g41
ag20
ag51
ag39
ag47
aS'.'
aa(lp4186
g41
ag20
ag51
ag39
ag49
aS'.'
aa(lp4187
g41
ag20
ag51
ag39
ag51
aS'.'
aa(lp4188
g41
ag20
ag51
ag39
ag53
aS'.'
aa(lp4189
g41
ag20
ag51
ag41
ag47
aS'.'
aa(lp4190
g41
ag20
ag51
ag41
ag49
aS'.'
aa(lp4191
g41
ag20
ag51
ag41
ag51
aS'.'
aa(lp4192
g41
ag20
ag51
ag41
ag53
aS'.'
aa(lp4193
g41
ag20
ag51
ag43
ag47
aS'.'
aa(lp4194
g41
ag20
ag51
ag43
ag49
aS'.'
aa(lp4195
g41
ag20
ag51
ag43
ag51
aS'.'
aa(lp4196
g41
ag20
ag51
ag43
ag53
aS'.'
aa(lp4197
g41
ag20
ag51
ag45
ag47
aS'.'
aa(lp4198
g41
ag20
ag51
ag45
ag49
aS'.'
aa(lp4199
g41
ag20
ag51
ag45
ag51
aS'.'
aa(lp4200
g41
ag20
ag51
ag45
ag53
aS'.'
aa(lp4201
g41
ag20
ag53
ag3
ag47
aS'.'
aa(lp4202
g41
ag20
ag53
ag3
ag49
aS'.'
aa(lp4203
g41
ag20
ag53
ag3
ag51
aS'.'
aa(lp4204
g41
ag20
ag53
ag3
ag53
aS'.'
aa(lp4205
g41
ag20
ag53
ag10
ag47
aS'.'
aa(lp4206
g41
ag20
ag53
ag10
ag49
aS'.'
aa(lp4207
g41
ag20
ag53
ag10
ag51
aS'.'
aa(lp4208
g41
ag20
ag53
ag10
ag53
aS'.'
aa(lp4209
g41
ag20
ag53
ag12
ag47
aS'.'
aa(lp4210
g41
ag20
ag53
ag12
ag49
aS'.'
aa(lp4211
g41
ag20
ag53
ag12
ag51
aS'.'
aa(lp4212
g41
ag20
ag53
ag12
ag53
aS'.'
aa(lp4213
g41
ag20
ag53
ag14
ag47
aS'.'
aa(lp4214
g41
ag20
ag53
ag14
ag49
aS'.'
aa(lp4215
g41
ag20
ag53
ag14
ag51
aS'.'
aa(lp4216
g41
ag20
ag53
ag14
ag53
aS'.'
aa(lp4217
g41
ag20
ag53
ag16
ag47
aS'.'
aa(lp4218
g41
ag20
ag53
ag16
ag49
aS'.'
aa(lp4219
g41
ag20
ag53
ag16
ag51
aS'.'
aa(lp4220
g41
ag20
ag53
ag16
ag53
aS'.'
aa(lp4221
g41
ag20
ag53
ag18
ag47
aS'.'
aa(lp4222
g41
ag20
ag53
ag18
ag49
aS'.'
aa(lp4223
g41
ag20
ag53
ag18
ag51
aS'.'
aa(lp4224
g41
ag20
ag53
ag18
ag53
aS'.'
aa(lp4225
g41
ag20
ag53
ag39
ag47
aS'.'
aa(lp4226
g41
ag20
ag53
ag39
ag49
aS'.'
aa(lp4227
g41
ag20
ag53
ag39
ag51
aS'.'
aa(lp4228
g41
ag20
ag53
ag39
ag53
aS'.'
aa(lp4229
g41
ag20
ag53
ag41
ag47
aS'.'
aa(lp4230
g41
ag20
ag53
ag41
ag49
aS'.'
aa(lp4231
g41
ag20
ag53
ag41
ag51
aS'.'
aa(lp4232
g41
ag20
ag53
ag41
ag53
aS'.'
aa(lp4233
g41
ag20
ag53
ag43
ag47
aS'.'
aa(lp4234
g41
ag20
ag53
ag43
ag49
aS'.'
aa(lp4235
g41
ag20
ag53
ag43
ag51
aS'.'
aa(lp4236
g41
ag20
ag53
ag43
ag53
aS'.'
aa(lp4237
g41
ag20
ag53
ag45
ag47
aS'.'
aa(lp4238
g41
ag20
ag53
ag45
ag49
aS'.'
aa(lp4239
g41
ag20
ag53
ag45
ag51
aS'.'
aa(lp4240
g41
ag20
ag53
ag45
ag53
aS'.'
aa(lp4241
g43
ag20
ag3
ag8
ag47
aS'.'
aa(lp4242
g43
ag20
ag3
ag8
ag49
aS'.'
aa(lp4243
g43
ag20
ag3
ag8
ag51
aS'.'
aa(lp4244
g43
ag20
ag3
ag8
ag53
aS'.'
aa(lp4245
g43
ag20
ag3
ag67
ag47
aS'.'
aa(lp4246
g43
ag20
ag3
ag67
ag49
aS'.'
aa(lp4247
g43
ag20
ag3
ag67
ag51
aS'.'
aa(lp4248
g43
ag20
ag3
ag67
ag53
aS'.'
aa(lp4249
g43
ag20
ag10
ag8
ag47
aS'.'
aa(lp4250
g43
ag20
ag10
ag8
ag49
aS'.'
aa(lp4251
g43
ag20
ag10
ag8
ag51
aS'.'
aa(lp4252
g43
ag20
ag10
ag8
ag53
aS'.'
aa(lp4253
g43
ag20
ag10
ag67
ag47
aS'.'
aa(lp4254
g43
ag20
ag10
ag67
ag49
aS'.'
aa(lp4255
g43
ag20
ag10
ag67
ag51
aS'.'
aa(lp4256
g43
ag20
ag10
ag67
ag53
aS'.'
aa(lp4257
g43
ag20
ag12
ag8
ag47
aS'.'
aa(lp4258
g43
ag20
ag12
ag8
ag49
aS'.'
aa(lp4259
g43
ag20
ag12
ag8
ag51
aS'.'
aa(lp4260
g43
ag20
ag12
ag8
ag53
aS'.'
aa(lp4261
g43
ag20
ag12
ag67
ag47
aS'.'
aa(lp4262
g43
ag20
ag12
ag67
ag49
aS'.'
aa(lp4263
g43
ag20
ag12
ag67
ag51
aS'.'
aa(lp4264
g43
ag20
ag12
ag67
ag53
aS'.'
aa(lp4265
g43
ag20
ag14
ag8
ag47
aS'.'
aa(lp4266
g43
ag20
ag14
ag8
ag49
aS'.'
aa(lp4267
g43
ag20
ag14
ag8
ag51
aS'.'
aa(lp4268
g43
ag20
ag14
ag8
ag53
aS'.'
aa(lp4269
g43
ag20
ag14
ag67
ag47
aS'.'
aa(lp4270
g43
ag20
ag14
ag67
ag49
aS'.'
aa(lp4271
g43
ag20
ag14
ag67
ag51
aS'.'
aa(lp4272
g43
ag20
ag14
ag67
ag53
aS'.'
aa(lp4273
g43
ag20
ag16
ag8
ag47
aS'.'
aa(lp4274
g43
ag20
ag16
ag8
ag49
aS'.'
aa(lp4275
g43
ag20
ag16
ag8
ag51
aS'.'
aa(lp4276
g43
ag20
ag16
ag8
ag53
aS'.'
aa(lp4277
g43
ag20
ag16
ag67
ag47
aS'.'
aa(lp4278
g43
ag20
ag16
ag67
ag49
aS'.'
aa(lp4279
g43
ag20
ag16
ag67
ag51
aS'.'
aa(lp4280
g43
ag20
ag16
ag67
ag53
aS'.'
aa(lp4281
g43
ag20
ag18
ag8
ag47
aS'.'
aa(lp4282
g43
ag20
ag18
ag8
ag49
aS'.'
aa(lp4283
g43
ag20
ag18
ag8
ag51
aS'.'
aa(lp4284
g43
ag20
ag18
ag8
ag53
aS'.'
aa(lp4285
g43
ag20
ag18
ag67
ag47
aS'.'
aa(lp4286
g43
ag20
ag18
ag67
ag49
aS'.'
aa(lp4287
g43
ag20
ag18
ag67
ag51
aS'.'
aa(lp4288
g43
ag20
ag18
ag67
ag53
aS'.'
aa(lp4289
g43
ag20
ag39
ag1104
ag47
aS'.'
aa(lp4290
g43
ag20
ag39
ag1104
ag49
aS'.'
aa(lp4291
g43
ag20
ag39
ag1104
ag51
aS'.'
aa(lp4292
g43
ag20
ag39
ag1104
ag53
aS'.'
aa(lp4293
g43
ag20
ag39
ag1109
ag47
aS'.'
aa(lp4294
g43
ag20
ag39
ag1109
ag49
aS'.'
aa(lp4295
g43
ag20
ag39
ag1109
ag51
aS'.'
aa(lp4296
g43
ag20
ag39
ag1109
ag53
aS'.'
aa(lp4297
g43
ag20
ag41
ag1104
ag47
aS'.'
aa(lp4298
g43
ag20
ag41
ag1104
ag49
aS'.'
aa(lp4299
g43
ag20
ag41
ag1104
ag51
aS'.'
aa(lp4300
g43
ag20
ag41
ag1104
ag53
aS'.'
aa(lp4301
g43
ag20
ag41
ag1109
ag47
aS'.'
aa(lp4302
g43
ag20
ag41
ag1109
ag49
aS'.'
aa(lp4303
g43
ag20
ag41
ag1109
ag51
aS'.'
aa(lp4304
g43
ag20
ag41
ag1109
ag53
aS'.'
aa(lp4305
g43
ag20
ag43
ag1104
ag47
aS'.'
aa(lp4306
g43
ag20
ag43
ag1104
ag49
aS'.'
aa(lp4307
g43
ag20
ag43
ag1104
ag51
aS'.'
aa(lp4308
g43
ag20
ag43
ag1104
ag53
aS'.'
aa(lp4309
g43
ag20
ag43
ag1109
ag47
aS'.'
aa(lp4310
g43
ag20
ag43
ag1109
ag49
aS'.'
aa(lp4311
g43
ag20
ag43
ag1109
ag51
aS'.'
aa(lp4312
g43
ag20
ag43
ag1109
ag53
aS'.'
aa(lp4313
g43
ag20
ag45
ag1104
ag47
aS'.'
aa(lp4314
g43
ag20
ag45
ag1104
ag49
aS'.'
aa(lp4315
g43
ag20
ag45
ag1104
ag51
aS'.'
aa(lp4316
g43
ag20
ag45
ag1104
ag53
aS'.'
aa(lp4317
g43
ag20
ag45
ag1109
ag47
aS'.'
aa(lp4318
g43
ag20
ag45
ag1109
ag49
aS'.'
aa(lp4319
g43
ag20
ag45
ag1109
ag51
aS'.'
aa(lp4320
g43
ag20
ag45
ag1109
ag53
aS'.'
aa(lp4321
g43
ag20
ag47
ag47
aS'.'
aa(lp4322
g43
ag20
ag47
ag49
aS'.'
aa(lp4323
g43
ag20
ag47
ag1104
ag3
aS'.'
aa(lp4324
g43
ag20
ag47
ag1104
ag10
aS'.'
aa(lp4325
g43
ag20
ag47
ag1104
ag12
aS'.'
aa(lp4326
g43
ag20
ag47
ag1104
ag14
aS'.'
aa(lp4327
g43
ag20
ag47
ag1104
ag16
aS'.'
aa(lp4328
g43
ag20
ag47
ag1104
ag18
aS'.'
aa(lp4329
g43
ag20
ag47
ag1104
ag39
aS'.'
aa(lp4330
g43
ag20
ag47
ag1104
ag41
aS'.'
aa(lp4331
g43
ag20
ag47
ag1104
ag43
aS'.'
aa(lp4332
g43
ag20
ag47
ag1104
ag45
aS'.'
aa(lp4333
g43
ag20
ag47
ag1109
ag3
aS'.'
aa(lp4334
g43
ag20
ag47
ag1109
ag10
aS'.'
aa(lp4335
g43
ag20
ag47
ag1109
ag12
aS'.'
aa(lp4336
g43
ag20
ag47
ag1109
ag14
aS'.'
aa(lp4337
g43
ag20
ag47
ag1109
ag16
aS'.'
aa(lp4338
g43
ag20
ag47
ag1109
ag18
aS'.'
aa(lp4339
g43
ag20
ag47
ag1109
ag39
aS'.'
aa(lp4340
g43
ag20
ag47
ag1109
ag41
aS'.'
aa(lp4341
g43
ag20
ag47
ag1109
ag43
aS'.'
aa(lp4342
g43
ag20
ag47
ag1109
ag45
aS'.'
aa(lp4343
g43
ag20
ag47
ag51
aS'.'
aa(lp4344
g43
ag20
ag47
ag53
aS'.'
aa(lp4345
g43
ag20
ag47
ag51
ag3
aS'.'
aa(lp4346
g43
ag20
ag47
ag51
ag10
aS'.'
aa(lp4347
g43
ag20
ag47
ag51
ag12
aS'.'
aa(lp4348
g43
ag20
ag47
ag51
ag14
aS'.'
aa(lp4349
g43
ag20
ag47
ag51
ag16
aS'.'
aa(lp4350
g43
ag20
ag47
ag51
ag18
aS'.'
aa(lp4351
g43
ag20
ag47
ag51
ag39
aS'.'
aa(lp4352
g43
ag20
ag47
ag51
ag41
aS'.'
aa(lp4353
g43
ag20
ag47
ag51
ag43
aS'.'
aa(lp4354
g43
ag20
ag47
ag51
ag45
aS'.'
aa(lp4355
g43
ag20
ag47
ag53
ag3
aS'.'
aa(lp4356
g43
ag20
ag47
ag53
ag10
aS'.'
aa(lp4357
g43
ag20
ag47
ag53
ag12
aS'.'
aa(lp4358
g43
ag20
ag47
ag53
ag14
aS'.'
aa(lp4359
g43
ag20
ag47
ag53
ag16
aS'.'
aa(lp4360
g43
ag20
ag47
ag53
ag18
aS'.'
aa(lp4361
g43
ag20
ag47
ag53
ag39
aS'.'
aa(lp4362
g43
ag20
ag47
ag53
ag41
aS'.'
aa(lp4363
g43
ag20
ag47
ag53
ag43
aS'.'
aa(lp4364
g43
ag20
ag47
ag53
ag45
aS'.'
aa(lp4365
g43
ag20
ag49
ag47
aS'.'
aa(lp4366
g43
ag20
ag49
ag49
aS'.'
aa(lp4367
g43
ag20
ag49
ag1104
ag3
aS'.'
aa(lp4368
g43
ag20
ag49
ag1104
ag10
aS'.'
aa(lp4369
g43
ag20
ag49
ag1104
ag12
aS'.'
aa(lp4370
g43
ag20
ag49
ag1104
ag14
aS'.'
aa(lp4371
g43
ag20
ag49
ag1104
ag16
aS'.'
aa(lp4372
g43
ag20
ag49
ag1104
ag18
aS'.'
aa(lp4373
g43
ag20
ag49
ag1104
ag39
aS'.'
aa(lp4374
g43
ag20
ag49
ag1104
ag41
aS'.'
aa(lp4375
g43
ag20
ag49
ag1104
ag43
aS'.'
aa(lp4376
g43
ag20
ag49
ag1104
ag45
aS'.'
aa(lp4377
g43
ag20
ag49
ag1109
ag3
aS'.'
aa(lp4378
g43
ag20
ag49
ag1109
ag10
aS'.'
aa(lp4379
g43
ag20
ag49
ag1109
ag12
aS'.'
aa(lp4380
g43
ag20
ag49
ag1109
ag14
aS'.'
aa(lp4381
g43
ag20
ag49
ag1109
ag16
aS'.'
aa(lp4382
g43
ag20
ag49
ag1109
ag18
aS'.'
aa(lp4383
g43
ag20
ag49
ag1109
ag39
aS'.'
aa(lp4384
g43
ag20
ag49
ag1109
ag41
aS'.'
aa(lp4385
g43
ag20
ag49
ag1109
ag43
aS'.'
aa(lp4386
g43
ag20
ag49
ag1109
ag45
aS'.'
aa(lp4387
g43
ag20
ag49
ag51
aS'.'
aa(lp4388
g43
ag20
ag49
ag53
aS'.'
aa(lp4389
g43
ag20
ag49
ag51
ag3
aS'.'
aa(lp4390
g43
ag20
ag49
ag51
ag10
aS'.'
aa(lp4391
g43
ag20
ag49
ag51
ag12
aS'.'
aa(lp4392
g43
ag20
ag49
ag51
ag14
aS'.'
aa(lp4393
g43
ag20
ag49
ag51
ag16
aS'.'
aa(lp4394
g43
ag20
ag49
ag51
ag18
aS'.'
aa(lp4395
g43
ag20
ag49
ag51
ag39
aS'.'
aa(lp4396
g43
ag20
ag49
ag51
ag41
aS'.'
aa(lp4397
g43
ag20
ag49
ag51
ag43
aS'.'
aa(lp4398
g43
ag20
ag49
ag51
ag45
aS'.'
aa(lp4399
g43
ag20
ag49
ag53
ag3
aS'.'
aa(lp4400
g43
ag20
ag49
ag53
ag10
aS'.'
aa(lp4401
g43
ag20
ag49
ag53
ag12
aS'.'
aa(lp4402
g43
ag20
ag49
ag53
ag14
aS'.'
aa(lp4403
g43
ag20
ag49
ag53
ag16
aS'.'
aa(lp4404
g43
ag20
ag49
ag53
ag18
aS'.'
aa(lp4405
g43
ag20
ag49
ag53
ag39
aS'.'
aa(lp4406
g43
ag20
ag49
ag53
ag41
aS'.'
aa(lp4407
g43
ag20
ag49
ag53
ag43
aS'.'
aa(lp4408
g43
ag20
ag49
ag53
ag45
aS'.'
aa(lp4409
g43
ag20
ag1104
ag3
ag47
aS'.'
aa(lp4410
g43
ag20
ag1104
ag3
ag49
aS'.'
aa(lp4411
g43
ag20
ag1104
ag3
ag51
aS'.'
aa(lp4412
g43
ag20
ag1104
ag3
ag53
aS'.'
aa(lp4413
g43
ag20
ag1104
ag10
ag47
aS'.'
aa(lp4414
g43
ag20
ag1104
ag10
ag49
aS'.'
aa(lp4415
g43
ag20
ag1104
ag10
ag51
aS'.'
aa(lp4416
g43
ag20
ag1104
ag10
ag53
aS'.'
aa(lp4417
g43
ag20
ag1104
ag12
ag47
aS'.'
aa(lp4418
g43
ag20
ag1104
ag12
ag49
aS'.'
aa(lp4419
g43
ag20
ag1104
ag12
ag51
aS'.'
aa(lp4420
g43
ag20
ag1104
ag12
ag53
aS'.'
aa(lp4421
g43
ag20
ag1104
ag14
ag47
aS'.'
aa(lp4422
g43
ag20
ag1104
ag14
ag49
aS'.'
aa(lp4423
g43
ag20
ag1104
ag14
ag51
aS'.'
aa(lp4424
g43
ag20
ag1104
ag14
ag53
aS'.'
aa(lp4425
g43
ag20
ag1104
ag16
ag47
aS'.'
aa(lp4426
g43
ag20
ag1104
ag16
ag49
aS'.'
aa(lp4427
g43
ag20
ag1104
ag16
ag51
aS'.'
aa(lp4428
g43
ag20
ag1104
ag16
ag53
aS'.'
aa(lp4429
g43
ag20
ag1104
ag18
ag47
aS'.'
aa(lp4430
g43
ag20
ag1104
ag18
ag49
aS'.'
aa(lp4431
g43
ag20
ag1104
ag18
ag51
aS'.'
aa(lp4432
g43
ag20
ag1104
ag18
ag53
aS'.'
aa(lp4433
g43
ag20
ag1104
ag39
ag47
aS'.'
aa(lp4434
g43
ag20
ag1104
ag39
ag49
aS'.'
aa(lp4435
g43
ag20
ag1104
ag39
ag51
aS'.'
aa(lp4436
g43
ag20
ag1104
ag39
ag53
aS'.'
aa(lp4437
g43
ag20
ag1104
ag41
ag47
aS'.'
aa(lp4438
g43
ag20
ag1104
ag41
ag49
aS'.'
aa(lp4439
g43
ag20
ag1104
ag41
ag51
aS'.'
aa(lp4440
g43
ag20
ag1104
ag41
ag53
aS'.'
aa(lp4441
g43
ag20
ag1104
ag43
ag47
aS'.'
aa(lp4442
g43
ag20
ag1104
ag43
ag49
aS'.'
aa(lp4443
g43
ag20
ag1104
ag43
ag51
aS'.'
aa(lp4444
g43
ag20
ag1104
ag43
ag53
aS'.'
aa(lp4445
g43
ag20
ag1104
ag45
ag47
aS'.'
aa(lp4446
g43
ag20
ag1104
ag45
ag49
aS'.'
aa(lp4447
g43
ag20
ag1104
ag45
ag51
aS'.'
aa(lp4448
g43
ag20
ag1104
ag45
ag53
aS'.'
aa(lp4449
g43
ag20
ag1109
ag3
ag47
aS'.'
aa(lp4450
g43
ag20
ag1109
ag3
ag49
aS'.'
aa(lp4451
g43
ag20
ag1109
ag3
ag51
aS'.'
aa(lp4452
g43
ag20
ag1109
ag3
ag53
aS'.'
aa(lp4453
g43
ag20
ag1109
ag10
ag47
aS'.'
aa(lp4454
g43
ag20
ag1109
ag10
ag49
aS'.'
aa(lp4455
g43
ag20
ag1109
ag10
ag51
aS'.'
aa(lp4456
g43
ag20
ag1109
ag10
ag53
aS'.'
aa(lp4457
g43
ag20
ag1109
ag12
ag47
aS'.'
aa(lp4458
g43
ag20
ag1109
ag12
ag49
aS'.'
aa(lp4459
g43
ag20
ag1109
ag12
ag51
aS'.'
aa(lp4460
g43
ag20
ag1109
ag12
ag53
aS'.'
aa(lp4461
g43
ag20
ag1109
ag14
ag47
aS'.'
aa(lp4462
g43
ag20
ag1109
ag14
ag49
aS'.'
aa(lp4463
g43
ag20
ag1109
ag14
ag51
aS'.'
aa(lp4464
g43
ag20
ag1109
ag14
ag53
aS'.'
aa(lp4465
g43
ag20
ag1109
ag16
ag47
aS'.'
aa(lp4466
g43
ag20
ag1109
ag16
ag49
aS'.'
aa(lp4467
g43
ag20
ag1109
ag16
ag51
aS'.'
aa(lp4468
g43
ag20
ag1109
ag16
ag53
aS'.'
aa(lp4469
g43
ag20
ag1109
ag18
ag47
aS'.'
aa(lp4470
g43
ag20
ag1109
ag18
ag49
aS'.'
aa(lp4471
g43
ag20
ag1109
ag18
ag51
aS'.'
aa(lp4472
g43
ag20
ag1109
ag18
ag53
aS'.'
aa(lp4473
g43
ag20
ag1109
ag39
ag47
aS'.'
aa(lp4474
g43
ag20
ag1109
ag39
ag49
aS'.'
aa(lp4475
g43
ag20
ag1109
ag39
ag51
aS'.'
aa(lp4476
g43
ag20
ag1109
ag39
ag53
aS'.'
aa(lp4477
g43
ag20
ag1109
ag41
ag47
aS'.'
aa(lp4478
g43
ag20
ag1109
ag41
ag49
aS'.'
aa(lp4479
g43
ag20
ag1109
ag41
ag51
aS'.'
aa(lp4480
g43
ag20
ag1109
ag41
ag53
aS'.'
aa(lp4481
g43
ag20
ag1109
ag43
ag47
aS'.'
aa(lp4482
g43
ag20
ag1109
ag43
ag49
aS'.'
aa(lp4483
g43
ag20
ag1109
ag43
ag51
aS'.'
aa(lp4484
g43
ag20
ag1109
ag43
ag53
aS'.'
aa(lp4485
g43
ag20
ag1109
ag45
ag47
aS'.'
aa(lp4486
g43
ag20
ag1109
ag45
ag49
aS'.'
aa(lp4487
g43
ag20
ag1109
ag45
ag51
aS'.'
aa(lp4488
g43
ag20
ag1109
ag45
ag53
aS'.'
aa(lp4489
g43
ag20
ag51
ag47
aS'.'
aa(lp4490
g43
ag20
ag51
ag49
aS'.'
aa(lp4491
g43
ag20
ag51
ag1104
ag3
aS'.'
aa(lp4492
g43
ag20
ag51
ag1104
ag10
aS'.'
aa(lp4493
g43
ag20
ag51
ag1104
ag12
aS'.'
aa(lp4494
g43
ag20
ag51
ag1104
ag14
aS'.'
aa(lp4495
g43
ag20
ag51
ag1104
ag16
aS'.'
aa(lp4496
g43
ag20
ag51
ag1104
ag18
aS'.'
aa(lp4497
g43
ag20
ag51
ag1104
ag39
aS'.'
aa(lp4498
g43
ag20
ag51
ag1104
ag41
aS'.'
aa(lp4499
g43
ag20
ag51
ag1104
ag43
aS'.'
aa(lp4500
g43
ag20
ag51
ag1104
ag45
aS'.'
aa(lp4501
g43
ag20
ag51
ag1109
ag3
aS'.'
aa(lp4502
g43
ag20
ag51
ag1109
ag10
aS'.'
aa(lp4503
g43
ag20
ag51
ag1109
ag12
aS'.'
aa(lp4504
g43
ag20
ag51
ag1109
ag14
aS'.'
aa(lp4505
g43
ag20
ag51
ag1109
ag16
aS'.'
aa(lp4506
g43
ag20
ag51
ag1109
ag18
aS'.'
aa(lp4507
g43
ag20
ag51
ag1109
ag39
aS'.'
aa(lp4508
g43
ag20
ag51
ag1109
ag41
aS'.'
aa(lp4509
g43
ag20
ag51
ag1109
ag43
aS'.'
aa(lp4510
g43
ag20
ag51
ag1109
ag45
aS'.'
aa(lp4511
g43
ag20
ag51
ag51
aS'.'
aa(lp4512
g43
ag20
ag51
ag53
aS'.'
aa(lp4513
g43
ag20
ag51
ag51
ag3
aS'.'
aa(lp4514
g43
ag20
ag51
ag51
ag10
aS'.'
aa(lp4515
g43
ag20
ag51
ag51
ag12
aS'.'
aa(lp4516
g43
ag20
ag51
ag51
ag14
aS'.'
aa(lp4517
g43
ag20
ag51
ag51
ag16
aS'.'
aa(lp4518
g43
ag20
ag51
ag51
ag18
aS'.'
aa(lp4519
g43
ag20
ag51
ag51
ag39
aS'.'
aa(lp4520
g43
ag20
ag51
ag51
ag41
aS'.'
aa(lp4521
g43
ag20
ag51
ag51
ag43
aS'.'
aa(lp4522
g43
ag20
ag51
ag51
ag45
aS'.'
aa(lp4523
g43
ag20
ag51
ag53
ag3
aS'.'
aa(lp4524
g43
ag20
ag51
ag53
ag10
aS'.'
aa(lp4525
g43
ag20
ag51
ag53
ag12
aS'.'
aa(lp4526
g43
ag20
ag51
ag53
ag14
aS'.'
aa(lp4527
g43
ag20
ag51
ag53
ag16
aS'.'
aa(lp4528
g43
ag20
ag51
ag53
ag18
aS'.'
aa(lp4529
g43
ag20
ag51
ag53
ag39
aS'.'
aa(lp4530
g43
ag20
ag51
ag53
ag41
aS'.'
aa(lp4531
g43
ag20
ag51
ag53
ag43
aS'.'
aa(lp4532
g43
ag20
ag51
ag53
ag45
aS'.'
aa(lp4533
g43
ag20
ag53
ag47
aS'.'
aa(lp4534
g43
ag20
ag53
ag49
aS'.'
aa(lp4535
g43
ag20
ag53
ag1104
ag3
aS'.'
aa(lp4536
g43
ag20
ag53
ag1104
ag10
aS'.'
aa(lp4537
g43
ag20
ag53
ag1104
ag12
aS'.'
aa(lp4538
g43
ag20
ag53
ag1104
ag14
aS'.'
aa(lp4539
g43
ag20
ag53
ag1104
ag16
aS'.'
aa(lp4540
g43
ag20
ag53
ag1104
ag18
aS'.'
aa(lp4541
g43
ag20
ag53
ag1104
ag39
aS'.'
aa(lp4542
g43
ag20
ag53
ag1104
ag41
aS'.'
aa(lp4543
g43
ag20
ag53
ag1104
ag43
aS'.'
aa(lp4544
g43
ag20
ag53
ag1104
ag45
aS'.'
aa(lp4545
g43
ag20
ag53
ag1109
ag3
aS'.'
aa(lp4546
g43
ag20
ag53
ag1109
ag10
aS'.'
aa(lp4547
g43
ag20
ag53
ag1109
ag12
aS'.'
aa(lp4548
g43
ag20
ag53
ag1109
ag14
aS'.'
aa(lp4549
g43
ag20
ag53
ag1109
ag16
aS'.'
aa(lp4550
g43
ag20
ag53
ag1109
ag18
aS'.'
aa(lp4551
g43
ag20
ag53
ag1109
ag39
aS'.'
aa(lp4552
g43
ag20
ag53
ag1109
ag41
aS'.'
aa(lp4553
g43
ag20
ag53
ag1109
ag43
aS'.'
aa(lp4554
g43
ag20
ag53
ag1109
ag45
aS'.'
aa(lp4555
g43
ag20
ag53
ag51
aS'.'
aa(lp4556
g43
ag20
ag53
ag53
aS'.'
aa(lp4557
g43
ag20
ag53
ag51
ag3
aS'.'
aa(lp4558
g43
ag20
ag53
ag51
ag10
aS'.'
aa(lp4559
g43
ag20
ag53
ag51
ag12
aS'.'
aa(lp4560
g43
ag20
ag53
ag51
ag14
aS'.'
aa(lp4561
g43
ag20
ag53
ag51
ag16
aS'.'
aa(lp4562
g43
ag20
ag53
ag51
ag18
aS'.'
aa(lp4563
g43
ag20
ag53
ag51
ag39
aS'.'
aa(lp4564
g43
ag20
ag53
ag51
ag41
aS'.'
aa(lp4565
g43
ag20
ag53
ag51
ag43
aS'.'
aa(lp4566
g43
ag20
ag53
ag51
ag45
aS'.'
aa(lp4567
g43
ag20
ag53
ag53
ag3
aS'.'
aa(lp4568
g43
ag20
ag53
ag53
ag10
aS'.'
aa(lp4569
g43
ag20
ag53
ag53
ag12
aS'.'
aa(lp4570
g43
ag20
ag53
ag53
ag14
aS'.'
aa(lp4571
g43
ag20
ag53
ag53
ag16
aS'.'
aa(lp4572
g43
ag20
ag53
ag53
ag18
aS'.'
aa(lp4573
g43
ag20
ag53
ag53
ag39
aS'.'
aa(lp4574
g43
ag20
ag53
ag53
ag41
aS'.'
aa(lp4575
g43
ag20
ag53
ag53
ag43
aS'.'
aa(lp4576
g43
ag20
ag53
ag53
ag45
aS'.'
aa(lp4577
g43
ag20
ag51
ag3
ag47
aS'.'
aa(lp4578
g43
ag20
ag51
ag3
ag49
aS'.'
aa(lp4579
g43
ag20
ag51
ag3
ag51
aS'.'
aa(lp4580
g43
ag20
ag51
ag3
ag53
aS'.'
aa(lp4581
g43
ag20
ag51
ag10
ag47
aS'.'
aa(lp4582
g43
ag20
ag51
ag10
ag49
aS'.'
aa(lp4583
g43
ag20
ag51
ag10
ag51
aS'.'
aa(lp4584
g43
ag20
ag51
ag10
ag53
aS'.'
aa(lp4585
g43
ag20
ag51
ag12
ag47
aS'.'
aa(lp4586
g43
ag20
ag51
ag12
ag49
aS'.'
aa(lp4587
g43
ag20
ag51
ag12
ag51
aS'.'
aa(lp4588
g43
ag20
ag51
ag12
ag53
aS'.'
aa(lp4589
g43
ag20
ag51
ag14
ag47
aS'.'
aa(lp4590
g43
ag20
ag51
ag14
ag49
aS'.'
aa(lp4591
g43
ag20
ag51
ag14
ag51
aS'.'
aa(lp4592
g43
ag20
ag51
ag14
ag53
aS'.'
aa(lp4593
g43
ag20
ag51
ag16
ag47
aS'.'
aa(lp4594
g43
ag20
ag51
ag16
ag49
aS'.'
aa(lp4595
g43
ag20
ag51
ag16
ag51
aS'.'
aa(lp4596
g43
ag20
ag51
ag16
ag53
aS'.'
aa(lp4597
g43
ag20
ag51
ag18
ag47
aS'.'
aa(lp4598
g43
ag20
ag51
ag18
ag49
aS'.'
aa(lp4599
g43
ag20
ag51
ag18
ag51
aS'.'
aa(lp4600
g43
ag20
ag51
ag18
ag53
aS'.'
aa(lp4601
g43
ag20
ag51
ag39
ag47
aS'.'
aa(lp4602
g43
ag20
ag51
ag39
ag49
aS'.'
aa(lp4603
g43
ag20
ag51
ag39
ag51
aS'.'
aa(lp4604
g43
ag20
ag51
ag39
ag53
aS'.'
aa(lp4605
g43
ag20
ag51
ag41
ag47
aS'.'
aa(lp4606
g43
ag20
ag51
ag41
ag49
aS'.'
aa(lp4607
g43
ag20
ag51
ag41
ag51
aS'.'
aa(lp4608
g43
ag20
ag51
ag41
ag53
aS'.'
aa(lp4609
g43
ag20
ag51
ag43
ag47
aS'.'
aa(lp4610
g43
ag20
ag51
ag43
ag49
aS'.'
aa(lp4611
g43
ag20
ag51
ag43
ag51
aS'.'
aa(lp4612
g43
ag20
ag51
ag43
ag53
aS'.'
aa(lp4613
g43
ag20
ag51
ag45
ag47
aS'.'
aa(lp4614
g43
ag20
ag51
ag45
ag49
aS'.'
aa(lp4615
g43
ag20
ag51
ag45
ag51
aS'.'
aa(lp4616
g43
ag20
ag51
ag45
ag53
aS'.'
aa(lp4617
g43
ag20
ag53
ag3
ag47
aS'.'
aa(lp4618
g43
ag20
ag53
ag3
ag49
aS'.'
aa(lp4619
g43
ag20
ag53
ag3
ag51
aS'.'
aa(lp4620
g43
ag20
ag53
ag3
ag53
aS'.'
aa(lp4621
g43
ag20
ag53
ag10
ag47
aS'.'
aa(lp4622
g43
ag20
ag53
ag10
ag49
aS'.'
aa(lp4623
g43
ag20
ag53
ag10
ag51
aS'.'
aa(lp4624
g43
ag20
ag53
ag10
ag53
aS'.'
aa(lp4625
g43
ag20
ag53
ag12
ag47
aS'.'
aa(lp4626
g43
ag20
ag53
ag12
ag49
aS'.'
aa(lp4627
g43
ag20
ag53
ag12
ag51
aS'.'
aa(lp4628
g43
ag20
ag53
ag12
ag53
aS'.'
aa(lp4629
g43
ag20
ag53
ag14
ag47
aS'.'
aa(lp4630
g43
ag20
ag53
ag14
ag49
aS'.'
aa(lp4631
g43
ag20
ag53
ag14
ag51
aS'.'
aa(lp4632
g43
ag20
ag53
ag14
ag53
aS'.'
aa(lp4633
g43
ag20
ag53
ag16
ag47
aS'.'
aa(lp4634
g43
ag20
ag53
ag16
ag49
aS'.'
aa(lp4635
g43
ag20
ag53
ag16
ag51
aS'.'
aa(lp4636
g43
ag20
ag53
ag16
ag53
aS'.'
aa(lp4637
g43
ag20
ag53
ag18
ag47
aS'.'
aa(lp4638
g43
ag20
ag53
ag18
ag49
aS'.'
aa(lp4639
g43
ag20
ag53
ag18
ag51
aS'.'
aa(lp4640
g43
ag20
ag53
ag18
ag53
aS'.'
aa(lp4641
g43
ag20
ag53
ag39
ag47
aS'.'
aa(lp4642
g43
ag20
ag53
ag39
ag49
aS'.'
aa(lp4643
g43
ag20
ag53
ag39
ag51
aS'.'
aa(lp4644
g43
ag20
ag53
ag39
ag53
aS'.'
aa(lp4645
g43
ag20
ag53
ag41
ag47
aS'.'
aa(lp4646
g43
ag20
ag53
ag41
ag49
aS'.'
aa(lp4647
g43
ag20
ag53
ag41
ag51
aS'.'
aa(lp4648
g43
ag20
ag53
ag41
ag53
aS'.'
aa(lp4649
g43
ag20
ag53
ag43
ag47
aS'.'
aa(lp4650
g43
ag20
ag53
ag43
ag49
aS'.'
aa(lp4651
g43
ag20
ag53
ag43
ag51
aS'.'
aa(lp4652
g43
ag20
ag53
ag43
ag53
aS'.'
aa(lp4653
g43
ag20
ag53
ag45
ag47
aS'.'
aa(lp4654
g43
ag20
ag53
ag45
ag49
aS'.'
aa(lp4655
g43
ag20
ag53
ag45
ag51
aS'.'
aa(lp4656
g43
ag20
ag53
ag45
ag53
aS'.'
aa(lp4657
g45
ag20
ag3
ag8
ag47
aS'.'
aa(lp4658
g45
ag20
ag3
ag8
ag49
aS'.'
aa(lp4659
g45
ag20
ag3
ag8
ag51
aS'.'
aa(lp4660
g45
ag20
ag3
ag8
ag53
aS'.'
aa(lp4661
g45
ag20
ag3
ag67
ag47
aS'.'
aa(lp4662
g45
ag20
ag3
ag67
ag49
aS'.'
aa(lp4663
g45
ag20
ag3
ag67
ag51
aS'.'
aa(lp4664
g45
ag20
ag3
ag67
ag53
aS'.'
aa(lp4665
g45
ag20
ag10
ag8
ag47
aS'.'
aa(lp4666
g45
ag20
ag10
ag8
ag49
aS'.'
aa(lp4667
g45
ag20
ag10
ag8
ag51
aS'.'
aa(lp4668
g45
ag20
ag10
ag8
ag53
aS'.'
aa(lp4669
g45
ag20
ag10
ag67
ag47
aS'.'
aa(lp4670
g45
ag20
ag10
ag67
ag49
aS'.'
aa(lp4671
g45
ag20
ag10
ag67
ag51
aS'.'
aa(lp4672
g45
ag20
ag10
ag67
ag53
aS'.'
aa(lp4673
g45
ag20
ag12
ag8
ag47
aS'.'
aa(lp4674
g45
ag20
ag12
ag8
ag49
aS'.'
aa(lp4675
g45
ag20
ag12
ag8
ag51
aS'.'
aa(lp4676
g45
ag20
ag12
ag8
ag53
aS'.'
aa(lp4677
g45
ag20
ag12
ag67
ag47
aS'.'
aa(lp4678
g45
ag20
ag12
ag67
ag49
aS'.'
aa(lp4679
g45
ag20
ag12
ag67
ag51
aS'.'
aa(lp4680
g45
ag20
ag12
ag67
ag53
aS'.'
aa(lp4681
g45
ag20
ag14
ag8
ag47
aS'.'
aa(lp4682
g45
ag20
ag14
ag8
ag49
aS'.'
aa(lp4683
g45
ag20
ag14
ag8
ag51
aS'.'
aa(lp4684
g45
ag20
ag14
ag8
ag53
aS'.'
aa(lp4685
g45
ag20
ag14
ag67
ag47
aS'.'
aa(lp4686
g45
ag20
ag14
ag67
ag49
aS'.'
aa(lp4687
g45
ag20
ag14
ag67
ag51
aS'.'
aa(lp4688
g45
ag20
ag14
ag67
ag53
aS'.'
aa(lp4689
g45
ag20
ag16
ag8
ag47
aS'.'
aa(lp4690
g45
ag20
ag16
ag8
ag49
aS'.'
aa(lp4691
g45
ag20
ag16
ag8
ag51
aS'.'
aa(lp4692
g45
ag20
ag16
ag8
ag53
aS'.'
aa(lp4693
g45
ag20
ag16
ag67
ag47
aS'.'
aa(lp4694
g45
ag20
ag16
ag67
ag49
aS'.'
aa(lp4695
g45
ag20
ag16
ag67
ag51
aS'.'
aa(lp4696
g45
ag20
ag16
ag67
ag53
aS'.'
aa(lp4697
g45
ag20
ag18
ag8
ag47
aS'.'
aa(lp4698
g45
ag20
ag18
ag8
ag49
aS'.'
aa(lp4699
g45
ag20
ag18
ag8
ag51
aS'.'
aa(lp4700
g45
ag20
ag18
ag8
ag53
aS'.'
aa(lp4701
g45
ag20
ag18
ag67
ag47
aS'.'
aa(lp4702
g45
ag20
ag18
ag67
ag49
aS'.'
aa(lp4703
g45
ag20
ag18
ag67
ag51
aS'.'
aa(lp4704
g45
ag20
ag18
ag67
ag53
aS'.'
aa(lp4705
g45
ag20
ag39
ag1104
ag47
aS'.'
aa(lp4706
g45
ag20
ag39
ag1104
ag49
aS'.'
aa(lp4707
g45
ag20
ag39
ag1104
ag51
aS'.'
aa(lp4708
g45
ag20
ag39
ag1104
ag53
aS'.'
aa(lp4709
g45
ag20
ag39
ag1109
ag47
aS'.'
aa(lp4710
g45
ag20
ag39
ag1109
ag49
aS'.'
aa(lp4711
g45
ag20
ag39
ag1109
ag51
aS'.'
aa(lp4712
g45
ag20
ag39
ag1109
ag53
aS'.'
aa(lp4713
g45
ag20
ag41
ag1104
ag47
aS'.'
aa(lp4714
g45
ag20
ag41
ag1104
ag49
aS'.'
aa(lp4715
g45
ag20
ag41
ag1104
ag51
aS'.'
aa(lp4716
g45
ag20
ag41
ag1104
ag53
aS'.'
aa(lp4717
g45
ag20
ag41
ag1109
ag47
aS'.'
aa(lp4718
g45
ag20
ag41
ag1109
ag49
aS'.'
aa(lp4719
g45
ag20
ag41
ag1109
ag51
aS'.'
aa(lp4720
g45
ag20
ag41
ag1109
ag53
aS'.'
aa(lp4721
g45
ag20
ag43
ag1104
ag47
aS'.'
aa(lp4722
g45
ag20
ag43
ag1104
ag49
aS'.'
aa(lp4723
g45
ag20
ag43
ag1104
ag51
aS'.'
aa(lp4724
g45
ag20
ag43
ag1104
ag53
aS'.'
aa(lp4725
g45
ag20
ag43
ag1109
ag47
aS'.'
aa(lp4726
g45
ag20
ag43
ag1109
ag49
aS'.'
aa(lp4727
g45
ag20
ag43
ag1109
ag51
aS'.'
aa(lp4728
g45
ag20
ag43
ag1109
ag53
aS'.'
aa(lp4729
g45
ag20
ag45
ag1104
ag47
aS'.'
aa(lp4730
g45
ag20
ag45
ag1104
ag49
aS'.'
aa(lp4731
g45
ag20
ag45
ag1104
ag51
aS'.'
aa(lp4732
g45
ag20
ag45
ag1104
ag53
aS'.'
aa(lp4733
g45
ag20
ag45
ag1109
ag47
aS'.'
aa(lp4734
g45
ag20
ag45
ag1109
ag49
aS'.'
aa(lp4735
g45
ag20
ag45
ag1109
ag51
aS'.'
aa(lp4736
g45
ag20
ag45
ag1109
ag53
aS'.'
aa(lp4737
g45
ag20
ag47
ag47
aS'.'
aa(lp4738
g45
ag20
ag47
ag49
aS'.'
aa(lp4739
g45
ag20
ag47
ag1104
ag3
aS'.'
aa(lp4740
g45
ag20
ag47
ag1104
ag10
aS'.'
aa(lp4741
g45
ag20
ag47
ag1104
ag12
aS'.'
aa(lp4742
g45
ag20
ag47
ag1104
ag14
aS'.'
aa(lp4743
g45
ag20
ag47
ag1104
ag16
aS'.'
aa(lp4744
g45
ag20
ag47
ag1104
ag18
aS'.'
aa(lp4745
g45
ag20
ag47
ag1104
ag39
aS'.'
aa(lp4746
g45
ag20
ag47
ag1104
ag41
aS'.'
aa(lp4747
g45
ag20
ag47
ag1104
ag43
aS'.'
aa(lp4748
g45
ag20
ag47
ag1104
ag45
aS'.'
aa(lp4749
g45
ag20
ag47
ag1109
ag3
aS'.'
aa(lp4750
g45
ag20
ag47
ag1109
ag10
aS'.'
aa(lp4751
g45
ag20
ag47
ag1109
ag12
aS'.'
aa(lp4752
g45
ag20
ag47
ag1109
ag14
aS'.'
aa(lp4753
g45
ag20
ag47
ag1109
ag16
aS'.'
aa(lp4754
g45
ag20
ag47
ag1109
ag18
aS'.'
aa(lp4755
g45
ag20
ag47
ag1109
ag39
aS'.'
aa(lp4756
g45
ag20
ag47
ag1109
ag41
aS'.'
aa(lp4757
g45
ag20
ag47
ag1109
ag43
aS'.'
aa(lp4758
g45
ag20
ag47
ag1109
ag45
aS'.'
aa(lp4759
g45
ag20
ag47
ag51
aS'.'
aa(lp4760
g45
ag20
ag47
ag53
aS'.'
aa(lp4761
g45
ag20
ag47
ag51
ag3
aS'.'
aa(lp4762
g45
ag20
ag47
ag51
ag10
aS'.'
aa(lp4763
g45
ag20
ag47
ag51
ag12
aS'.'
aa(lp4764
g45
ag20
ag47
ag51
ag14
aS'.'
aa(lp4765
g45
ag20
ag47
ag51
ag16
aS'.'
aa(lp4766
g45
ag20
ag47
ag51
ag18
aS'.'
aa(lp4767
g45
ag20
ag47
ag51
ag39
aS'.'
aa(lp4768
g45
ag20
ag47
ag51
ag41
aS'.'
aa(lp4769
g45
ag20
ag47
ag51
ag43
aS'.'
aa(lp4770
g45
ag20
ag47
ag51
ag45
aS'.'
aa(lp4771
g45
ag20
ag47
ag53
ag3
aS'.'
aa(lp4772
g45
ag20
ag47
ag53
ag10
aS'.'
aa(lp4773
g45
ag20
ag47
ag53
ag12
aS'.'
aa(lp4774
g45
ag20
ag47
ag53
ag14
aS'.'
aa(lp4775
g45
ag20
ag47
ag53
ag16
aS'.'
aa(lp4776
g45
ag20
ag47
ag53
ag18
aS'.'
aa(lp4777
g45
ag20
ag47
ag53
ag39
aS'.'
aa(lp4778
g45
ag20
ag47
ag53
ag41
aS'.'
aa(lp4779
g45
ag20
ag47
ag53
ag43
aS'.'
aa(lp4780
g45
ag20
ag47
ag53
ag45
aS'.'
aa(lp4781
g45
ag20
ag49
ag47
aS'.'
aa(lp4782
g45
ag20
ag49
ag49
aS'.'
aa(lp4783
g45
ag20
ag49
ag1104
ag3
aS'.'
aa(lp4784
g45
ag20
ag49
ag1104
ag10
aS'.'
aa(lp4785
g45
ag20
ag49
ag1104
ag12
aS'.'
aa(lp4786
g45
ag20
ag49
ag1104
ag14
aS'.'
aa(lp4787
g45
ag20
ag49
ag1104
ag16
aS'.'
aa(lp4788
g45
ag20
ag49
ag1104
ag18
aS'.'
aa(lp4789
g45
ag20
ag49
ag1104
ag39
aS'.'
aa(lp4790
g45
ag20
ag49
ag1104
ag41
aS'.'
aa(lp4791
g45
ag20
ag49
ag1104
ag43
aS'.'
aa(lp4792
g45
ag20
ag49
ag1104
ag45
aS'.'
aa(lp4793
g45
ag20
ag49
ag1109
ag3
aS'.'
aa(lp4794
g45
ag20
ag49
ag1109
ag10
aS'.'
aa(lp4795
g45
ag20
ag49
ag1109
ag12
aS'.'
aa(lp4796
g45
ag20
ag49
ag1109
ag14
aS'.'
aa(lp4797
g45
ag20
ag49
ag1109
ag16
aS'.'
aa(lp4798
g45
ag20
ag49
ag1109
ag18
aS'.'
aa(lp4799
g45
ag20
ag49
ag1109
ag39
aS'.'
aa(lp4800
g45
ag20
ag49
ag1109
ag41
aS'.'
aa(lp4801
g45
ag20
ag49
ag1109
ag43
aS'.'
aa(lp4802
g45
ag20
ag49
ag1109
ag45
aS'.'
aa(lp4803
g45
ag20
ag49
ag51
aS'.'
aa(lp4804
g45
ag20
ag49
ag53
aS'.'
aa(lp4805
g45
ag20
ag49
ag51
ag3
aS'.'
aa(lp4806
g45
ag20
ag49
ag51
ag10
aS'.'
aa(lp4807
g45
ag20
ag49
ag51
ag12
aS'.'
aa(lp4808
g45
ag20
ag49
ag51
ag14
aS'.'
aa(lp4809
g45
ag20
ag49
ag51
ag16
aS'.'
aa(lp4810
g45
ag20
ag49
ag51
ag18
aS'.'
aa(lp4811
g45
ag20
ag49
ag51
ag39
aS'.'
aa(lp4812
g45
ag20
ag49
ag51
ag41
aS'.'
aa(lp4813
g45
ag20
ag49
ag51
ag43
aS'.'
aa(lp4814
g45
ag20
ag49
ag51
ag45
aS'.'
aa(lp4815
g45
ag20
ag49
ag53
ag3
aS'.'
aa(lp4816
g45
ag20
ag49
ag53
ag10
aS'.'
aa(lp4817
g45
ag20
ag49
ag53
ag12
aS'.'
aa(lp4818
g45
ag20
ag49
ag53
ag14
aS'.'
aa(lp4819
g45
ag20
ag49
ag53
ag16
aS'.'
aa(lp4820
g45
ag20
ag49
ag53
ag18
aS'.'
aa(lp4821
g45
ag20
ag49
ag53
ag39
aS'.'
aa(lp4822
g45
ag20
ag49
ag53
ag41
aS'.'
aa(lp4823
g45
ag20
ag49
ag53
ag43
aS'.'
aa(lp4824
g45
ag20
ag49
ag53
ag45
aS'.'
aa(lp4825
g45
ag20
ag1104
ag3
ag47
aS'.'
aa(lp4826
g45
ag20
ag1104
ag3
ag49
aS'.'
aa(lp4827
g45
ag20
ag1104
ag3
ag51
aS'.'
aa(lp4828
g45
ag20
ag1104
ag3
ag53
aS'.'
aa(lp4829
g45
ag20
ag1104
ag10
ag47
aS'.'
aa(lp4830
g45
ag20
ag1104
ag10
ag49
aS'.'
aa(lp4831
g45
ag20
ag1104
ag10
ag51
aS'.'
aa(lp4832
g45
ag20
ag1104
ag10
ag53
aS'.'
aa(lp4833
g45
ag20
ag1104
ag12
ag47
aS'.'
aa(lp4834
g45
ag20
ag1104
ag12
ag49
aS'.'
aa(lp4835
g45
ag20
ag1104
ag12
ag51
aS'.'
aa(lp4836
g45
ag20
ag1104
ag12
ag53
aS'.'
aa(lp4837
g45
ag20
ag1104
ag14
ag47
aS'.'
aa(lp4838
g45
ag20
ag1104
ag14
ag49
aS'.'
aa(lp4839
g45
ag20
ag1104
ag14
ag51
aS'.'
aa(lp4840
g45
ag20
ag1104
ag14
ag53
aS'.'
aa(lp4841
g45
ag20
ag1104
ag16
ag47
aS'.'
aa(lp4842
g45
ag20
ag1104
ag16
ag49
aS'.'
aa(lp4843
g45
ag20
ag1104
ag16
ag51
aS'.'
aa(lp4844
g45
ag20
ag1104
ag16
ag53
aS'.'
aa(lp4845
g45
ag20
ag1104
ag18
ag47
aS'.'
aa(lp4846
g45
ag20
ag1104
ag18
ag49
aS'.'
aa(lp4847
g45
ag20
ag1104
ag18
ag51
aS'.'
aa(lp4848
g45
ag20
ag1104
ag18
ag53
aS'.'
aa(lp4849
g45
ag20
ag1104
ag39
ag47
aS'.'
aa(lp4850
g45
ag20
ag1104
ag39
ag49
aS'.'
aa(lp4851
g45
ag20
ag1104
ag39
ag51
aS'.'
aa(lp4852
g45
ag20
ag1104
ag39
ag53
aS'.'
aa(lp4853
g45
ag20
ag1104
ag41
ag47
aS'.'
aa(lp4854
g45
ag20
ag1104
ag41
ag49
aS'.'
aa(lp4855
g45
ag20
ag1104
ag41
ag51
aS'.'
aa(lp4856
g45
ag20
ag1104
ag41
ag53
aS'.'
aa(lp4857
g45
ag20
ag1104
ag43
ag47
aS'.'
aa(lp4858
g45
ag20
ag1104
ag43
ag49
aS'.'
aa(lp4859
g45
ag20
ag1104
ag43
ag51
aS'.'
aa(lp4860
g45
ag20
ag1104
ag43
ag53
aS'.'
aa(lp4861
g45
ag20
ag1104
ag45
ag47
aS'.'
aa(lp4862
g45
ag20
ag1104
ag45
ag49
aS'.'
aa(lp4863
g45
ag20
ag1104
ag45
ag51
aS'.'
aa(lp4864
g45
ag20
ag1104
ag45
ag53
aS'.'
aa(lp4865
g45
ag20
ag1109
ag3
ag47
aS'.'
aa(lp4866
g45
ag20
ag1109
ag3
ag49
aS'.'
aa(lp4867
g45
ag20
ag1109
ag3
ag51
aS'.'
aa(lp4868
g45
ag20
ag1109
ag3
ag53
aS'.'
aa(lp4869
g45
ag20
ag1109
ag10
ag47
aS'.'
aa(lp4870
g45
ag20
ag1109
ag10
ag49
aS'.'
aa(lp4871
g45
ag20
ag1109
ag10
ag51
aS'.'
aa(lp4872
g45
ag20
ag1109
ag10
ag53
aS'.'
aa(lp4873
g45
ag20
ag1109
ag12
ag47
aS'.'
aa(lp4874
g45
ag20
ag1109
ag12
ag49
aS'.'
aa(lp4875
g45
ag20
ag1109
ag12
ag51
aS'.'
aa(lp4876
g45
ag20
ag1109
ag12
ag53
aS'.'
aa(lp4877
g45
ag20
ag1109
ag14
ag47
aS'.'
aa(lp4878
g45
ag20
ag1109
ag14
ag49
aS'.'
aa(lp4879
g45
ag20
ag1109
ag14
ag51
aS'.'
aa(lp4880
g45
ag20
ag1109
ag14
ag53
aS'.'
aa(lp4881
g45
ag20
ag1109
ag16
ag47
aS'.'
aa(lp4882
g45
ag20
ag1109
ag16
ag49
aS'.'
aa(lp4883
g45
ag20
ag1109
ag16
ag51
aS'.'
aa(lp4884
g45
ag20
ag1109
ag16
ag53
aS'.'
aa(lp4885
g45
ag20
ag1109
ag18
ag47
aS'.'
aa(lp4886
g45
ag20
ag1109
ag18
ag49
aS'.'
aa(lp4887
g45
ag20
ag1109
ag18
ag51
aS'.'
aa(lp4888
g45
ag20
ag1109
ag18
ag53
aS'.'
aa(lp4889
g45
ag20
ag1109
ag39
ag47
aS'.'
aa(lp4890
g45
ag20
ag1109
ag39
ag49
aS'.'
aa(lp4891
g45
ag20
ag1109
ag39
ag51
aS'.'
aa(lp4892
g45
ag20
ag1109
ag39
ag53
aS'.'
aa(lp4893
g45
ag20
ag1109
ag41
ag47
aS'.'
aa(lp4894
g45
ag20
ag1109
ag41
ag49
aS'.'
aa(lp4895
g45
ag20
ag1109
ag41
ag51
aS'.'
aa(lp4896
g45
ag20
ag1109
ag41
ag53
aS'.'
aa(lp4897
g45
ag20
ag1109
ag43
ag47
aS'.'
aa(lp4898
g45
ag20
ag1109
ag43
ag49
aS'.'
aa(lp4899
g45
ag20
ag1109
ag43
ag51
aS'.'
aa(lp4900
g45
ag20
ag1109
ag43
ag53
aS'.'
aa(lp4901
g45
ag20
ag1109
ag45
ag47
aS'.'
aa(lp4902
g45
ag20
ag1109
ag45
ag49
aS'.'
aa(lp4903
g45
ag20
ag1109
ag45
ag51
aS'.'
aa(lp4904
g45
ag20
ag1109
ag45
ag53
aS'.'
aa(lp4905
g45
ag20
ag51
ag47
aS'.'
aa(lp4906
g45
ag20
ag51
ag49
aS'.'
aa(lp4907
g45
ag20
ag51
ag1104
ag3
aS'.'
aa(lp4908
g45
ag20
ag51
ag1104
ag10
aS'.'
aa(lp4909
g45
ag20
ag51
ag1104
ag12
aS'.'
aa(lp4910
g45
ag20
ag51
ag1104
ag14
aS'.'
aa(lp4911
g45
ag20
ag51
ag1104
ag16
aS'.'
aa(lp4912
g45
ag20
ag51
ag1104
ag18
aS'.'
aa(lp4913
g45
ag20
ag51
ag1104
ag39
aS'.'
aa(lp4914
g45
ag20
ag51
ag1104
ag41
aS'.'
aa(lp4915
g45
ag20
ag51
ag1104
ag43
aS'.'
aa(lp4916
g45
ag20
ag51
ag1104
ag45
aS'.'
aa(lp4917
g45
ag20
ag51
ag1109
ag3
aS'.'
aa(lp4918
g45
ag20
ag51
ag1109
ag10
aS'.'
aa(lp4919
g45
ag20
ag51
ag1109
ag12
aS'.'
aa(lp4920
g45
ag20
ag51
ag1109
ag14
aS'.'
aa(lp4921
g45
ag20
ag51
ag1109
ag16
aS'.'
aa(lp4922
g45
ag20
ag51
ag1109
ag18
aS'.'
aa(lp4923
g45
ag20
ag51
ag1109
ag39
aS'.'
aa(lp4924
g45
ag20
ag51
ag1109
ag41
aS'.'
aa(lp4925
g45
ag20
ag51
ag1109
ag43
aS'.'
aa(lp4926
g45
ag20
ag51
ag1109
ag45
aS'.'
aa(lp4927
g45
ag20
ag51
ag51
aS'.'
aa(lp4928
g45
ag20
ag51
ag53
aS'.'
aa(lp4929
g45
ag20
ag51
ag51
ag3
aS'.'
aa(lp4930
g45
ag20
ag51
ag51
ag10
aS'.'
aa(lp4931
g45
ag20
ag51
ag51
ag12
aS'.'
aa(lp4932
g45
ag20
ag51
ag51
ag14
aS'.'
aa(lp4933
g45
ag20
ag51
ag51
ag16
aS'.'
aa(lp4934
g45
ag20
ag51
ag51
ag18
aS'.'
aa(lp4935
g45
ag20
ag51
ag51
ag39
aS'.'
aa(lp4936
g45
ag20
ag51
ag51
ag41
aS'.'
aa(lp4937
g45
ag20
ag51
ag51
ag43
aS'.'
aa(lp4938
g45
ag20
ag51
ag51
ag45
aS'.'
aa(lp4939
g45
ag20
ag51
ag53
ag3
aS'.'
aa(lp4940
g45
ag20
ag51
ag53
ag10
aS'.'
aa(lp4941
g45
ag20
ag51
ag53
ag12
aS'.'
aa(lp4942
g45
ag20
ag51
ag53
ag14
aS'.'
aa(lp4943
g45
ag20
ag51
ag53
ag16
aS'.'
aa(lp4944
g45
ag20
ag51
ag53
ag18
aS'.'
aa(lp4945
g45
ag20
ag51
ag53
ag39
aS'.'
aa(lp4946
g45
ag20
ag51
ag53
ag41
aS'.'
aa(lp4947
g45
ag20
ag51
ag53
ag43
aS'.'
aa(lp4948
g45
ag20
ag51
ag53
ag45
aS'.'
aa(lp4949
g45
ag20
ag53
ag47
aS'.'
aa(lp4950
g45
ag20
ag53
ag49
aS'.'
aa(lp4951
g45
ag20
ag53
ag1104
ag3
aS'.'
aa(lp4952
g45
ag20
ag53
ag1104
ag10
aS'.'
aa(lp4953
g45
ag20
ag53
ag1104
ag12
aS'.'
aa(lp4954
g45
ag20
ag53
ag1104
ag14
aS'.'
aa(lp4955
g45
ag20
ag53
ag1104
ag16
aS'.'
aa(lp4956
g45
ag20
ag53
ag1104
ag18
aS'.'
aa(lp4957
g45
ag20
ag53
ag1104
ag39
aS'.'
aa(lp4958
g45
ag20
ag53
ag1104
ag41
aS'.'
aa(lp4959
g45
ag20
ag53
ag1104
ag43
aS'.'
aa(lp4960
g45
ag20
ag53
ag1104
ag45
aS'.'
aa(lp4961
g45
ag20
ag53
ag1109
ag3
aS'.'
aa(lp4962
g45
ag20
ag53
ag1109
ag10
aS'.'
aa(lp4963
g45
ag20
ag53
ag1109
ag12
aS'.'
aa(lp4964
g45
ag20
ag53
ag1109
ag14
aS'.'
aa(lp4965
g45
ag20
ag53
ag1109
ag16
aS'.'
aa(lp4966
g45
ag20
ag53
ag1109
ag18
aS'.'
aa(lp4967
g45
ag20
ag53
ag1109
ag39
aS'.'
aa(lp4968
g45
ag20
ag53
ag1109
ag41
aS'.'
aa(lp4969
g45
ag20
ag53
ag1109
ag43
aS'.'
aa(lp4970
g45
ag20
ag53
ag1109
ag45
aS'.'
aa(lp4971
g45
ag20
ag53
ag51
aS'.'
aa(lp4972
g45
ag20
ag53
ag53
aS'.'
aa(lp4973
g45
ag20
ag53
ag51
ag3
aS'.'
aa(lp4974
g45
ag20
ag53
ag51
ag10
aS'.'
aa(lp4975
g45
ag20
ag53
ag51
ag12
aS'.'
aa(lp4976
g45
ag20
ag53
ag51
ag14
aS'.'
aa(lp4977
g45
ag20
ag53
ag51
ag16
aS'.'
aa(lp4978
g45
ag20
ag53
ag51
ag18
aS'.'
aa(lp4979
g45
ag20
ag53
ag51
ag39
aS'.'
aa(lp4980
g45
ag20
ag53
ag51
ag41
aS'.'
aa(lp4981
g45
ag20
ag53
ag51
ag43
aS'.'
aa(lp4982
g45
ag20
ag53
ag51
ag45
aS'.'
aa(lp4983
g45
ag20
ag53
ag53
ag3
aS'.'
aa(lp4984
g45
ag20
ag53
ag53
ag10
aS'.'
aa(lp4985
g45
ag20
ag53
ag53
ag12
aS'.'
aa(lp4986
g45
ag20
ag53
ag53
ag14
aS'.'
aa(lp4987
g45
ag20
ag53
ag53
ag16
aS'.'
aa(lp4988
g45
ag20
ag53
ag53
ag18
aS'.'
aa(lp4989
g45
ag20
ag53
ag53
ag39
aS'.'
aa(lp4990
g45
ag20
ag53
ag53
ag41
aS'.'
aa(lp4991
g45
ag20
ag53
ag53
ag43
aS'.'
aa(lp4992
g45
ag20
ag53
ag53
ag45
aS'.'
aa(lp4993
g45
ag20
ag51
ag3
ag47
aS'.'
aa(lp4994
g45
ag20
ag51
ag3
ag49
aS'.'
aa(lp4995
g45
ag20
ag51
ag3
ag51
aS'.'
aa(lp4996
g45
ag20
ag51
ag3
ag53
aS'.'
aa(lp4997
g45
ag20
ag51
ag10
ag47
aS'.'
aa(lp4998
g45
ag20
ag51
ag10
ag49
aS'.'
aa(lp4999
g45
ag20
ag51
ag10
ag51
aS'.'
aa(lp5000
g45
ag20
ag51
ag10
ag53
aS'.'
aa(lp5001
g45
ag20
ag51
ag12
ag47
aS'.'
aa(lp5002
g45
ag20
ag51
ag12
ag49
aS'.'
aa(lp5003
g45
ag20
ag51
ag12
ag51
aS'.'
aa(lp5004
g45
ag20
ag51
ag12
ag53
aS'.'
aa(lp5005
g45
ag20
ag51
ag14
ag47
aS'.'
aa(lp5006
g45
ag20
ag51
ag14
ag49
aS'.'
aa(lp5007
g45
ag20
ag51
ag14
ag51
aS'.'
aa(lp5008
g45
ag20
ag51
ag14
ag53
aS'.'
aa(lp5009
g45
ag20
ag51
ag16
ag47
aS'.'
aa(lp5010
g45
ag20
ag51
ag16
ag49
aS'.'
aa(lp5011
g45
ag20
ag51
ag16
ag51
aS'.'
aa(lp5012
g45
ag20
ag51
ag16
ag53
aS'.'
aa(lp5013
g45
ag20
ag51
ag18
ag47
aS'.'
aa(lp5014
g45
ag20
ag51
ag18
ag49
aS'.'
aa(lp5015
g45
ag20
ag51
ag18
ag51
aS'.'
aa(lp5016
g45
ag20
ag51
ag18
ag53
aS'.'
aa(lp5017
g45
ag20
ag51
ag39
ag47
aS'.'
aa(lp5018
g45
ag20
ag51
ag39
ag49
aS'.'
aa(lp5019
g45
ag20
ag51
ag39
ag51
aS'.'
aa(lp5020
g45
ag20
ag51
ag39
ag53
aS'.'
aa(lp5021
g45
ag20
ag51
ag41
ag47
aS'.'
aa(lp5022
g45
ag20
ag51
ag41
ag49
aS'.'
aa(lp5023
g45
ag20
ag51
ag41
ag51
aS'.'
aa(lp5024
g45
ag20
ag51
ag41
ag53
aS'.'
aa(lp5025
g45
ag20
ag51
ag43
ag47
aS'.'
aa(lp5026
g45
ag20
ag51
ag43
ag49
aS'.'
aa(lp5027
g45
ag20
ag51
ag43
ag51
aS'.'
aa(lp5028
g45
ag20
ag51
ag43
ag53
aS'.'
aa(lp5029
g45
ag20
ag51
ag45
ag47
aS'.'
aa(lp5030
g45
ag20
ag51
ag45
ag49
aS'.'
aa(lp5031
g45
ag20
ag51
ag45
ag51
aS'.'
aa(lp5032
g45
ag20
ag51
ag45
ag53
aS'.'
aa(lp5033
g45
ag20
ag53
ag3
ag47
aS'.'
aa(lp5034
g45
ag20
ag53
ag3
ag49
aS'.'
aa(lp5035
g45
ag20
ag53
ag3
ag51
aS'.'
aa(lp5036
g45
ag20
ag53
ag3
ag53
aS'.'
aa(lp5037
g45
ag20
ag53
ag10
ag47
aS'.'
aa(lp5038
g45
ag20
ag53
ag10
ag49
aS'.'
aa(lp5039
g45
ag20
ag53
ag10
ag51
aS'.'
aa(lp5040
g45
ag20
ag53
ag10
ag53
aS'.'
aa(lp5041
g45
ag20
ag53
ag12
ag47
aS'.'
aa(lp5042
g45
ag20
ag53
ag12
ag49
aS'.'
aa(lp5043
g45
ag20
ag53
ag12
ag51
aS'.'
aa(lp5044
g45
ag20
ag53
ag12
ag53
aS'.'
aa(lp5045
g45
ag20
ag53
ag14
ag47
aS'.'
aa(lp5046
g45
ag20
ag53
ag14
ag49
aS'.'
aa(lp5047
g45
ag20
ag53
ag14
ag51
aS'.'
aa(lp5048
g45
ag20
ag53
ag14
ag53
aS'.'
aa(lp5049
g45
ag20
ag53
ag16
ag47
aS'.'
aa(lp5050
g45
ag20
ag53
ag16
ag49
aS'.'
aa(lp5051
g45
ag20
ag53
ag16
ag51
aS'.'
aa(lp5052
g45
ag20
ag53
ag16
ag53
aS'.'
aa(lp5053
g45
ag20
ag53
ag18
ag47
aS'.'
aa(lp5054
g45
ag20
ag53
ag18
ag49
aS'.'
aa(lp5055
g45
ag20
ag53
ag18
ag51
aS'.'
aa(lp5056
g45
ag20
ag53
ag18
ag53
aS'.'
aa(lp5057
g45
ag20
ag53
ag39
ag47
aS'.'
aa(lp5058
g45
ag20
ag53
ag39
ag49
aS'.'
aa(lp5059
g45
ag20
ag53
ag39
ag51
aS'.'
aa(lp5060
g45
ag20
ag53
ag39
ag53
aS'.'
aa(lp5061
g45
ag20
ag53
ag41
ag47
aS'.'
aa(lp5062
g45
ag20
ag53
ag41
ag49
aS'.'
aa(lp5063
g45
ag20
ag53
ag41
ag51
aS'.'
aa(lp5064
g45
ag20
ag53
ag41
ag53
aS'.'
aa(lp5065
g45
ag20
ag53
ag43
ag47
aS'.'
aa(lp5066
g45
ag20
ag53
ag43
ag49
aS'.'
aa(lp5067
g45
ag20
ag53
ag43
ag51
aS'.'
aa(lp5068
g45
ag20
ag53
ag43
ag53
aS'.'
aa(lp5069
g45
ag20
ag53
ag45
ag47
aS'.'
aa(lp5070
g45
ag20
ag53
ag45
ag49
aS'.'
aa(lp5071
g45
ag20
ag53
ag45
ag51
aS'.'
aa(lp5072
g45
ag20
ag53
ag45
ag53
aS'.'
aa.